Archive member included because of file (symbol)

c:/ndsdev/devkitPro/PAlib/lib\libpa9.a(PA.o)
                              cs_api.o (PA_CheckLid)
c:/ndsdev/devkitPro/PAlib/lib\libpa9.a(PA_BgEasy.o)
                              cs_api.o (PA_EasyBgScrollY)
c:/ndsdev/devkitPro/PAlib/lib\libpa9.a(PA_BgLargeMap.o)
                              c:/ndsdev/devkitPro/PAlib/lib\libpa9.a(PA_BgEasy.o) (PA_InfLargeScrollXN)
c:/ndsdev/devkitPro/PAlib/lib\libpa9.a(PA_BgTiles.o)
                              c:/ndsdev/devkitPro/PAlib/lib\libpa9.a(PA_BgEasy.o) (PA_BgInfo)
c:/ndsdev/devkitPro/PAlib/lib\libpa9.a(PA_Error.o)
                              c:/ndsdev/devkitPro/PAlib/lib\libpa9.a(PA_BgTiles.o) (PA_Error)
c:/ndsdev/devkitPro/PAlib/lib\libpa9.a(PA_Inits.o)
                              c:/ndsdev/devkitPro/PAlib/lib\libpa9.a(PA_Error.o) (PA_Init2D)
c:/ndsdev/devkitPro/PAlib/lib\libpa9.a(PA_Interrupt.o)
                              c:/ndsdev/devkitPro/PAlib/lib\libpa9.a(PA_Inits.o) (PA_VBLCountersReset)
c:/ndsdev/devkitPro/PAlib/lib\libpa9.a(PA_Keys.o)
                              c:/ndsdev/devkitPro/PAlib/lib\libpa9.a(PA_Interrupt.o) (PA_UpdatePad)
c:/ndsdev/devkitPro/PAlib/lib\libpa9.a(PA_Math.o)
                              game.o (RandomValue)
c:/ndsdev/devkitPro/PAlib/lib\libpa9.a(PA_NewBg.o)
                              cs_api.o (PA_LoadBackground)
c:/ndsdev/devkitPro/PAlib/lib\libpa9.a(PA_Palette.o)
                              cs_api.o (PA_LoadSpriteExtPal)
c:/ndsdev/devkitPro/PAlib/lib\libpa9.a(PA_RTC.o)
                              c:/ndsdev/devkitPro/PAlib/lib\libpa9.a(PA_Inits.o) (PA_UpdateUserInfo)
c:/ndsdev/devkitPro/PAlib/lib\libpa9.a(PA_Reco.o)
                              c:/ndsdev/devkitPro/PAlib/lib\libpa9.a(PA_Inits.o) (PA_UseGraffiti)
c:/ndsdev/devkitPro/PAlib/lib\libpa9.a(PA_Sprite.o)
                              cs_api.o (PA_ResetSpriteSysScreen)
c:/ndsdev/devkitPro/PAlib/lib\libpa9.a(PA_SpriteAnim.o)
                              cs_api.o (PA_StartSpriteAnimEx)
c:/ndsdev/devkitPro/PAlib/lib\libpa9.a(PA_Stuff.o)
                              c:/ndsdev/devkitPro/PAlib/lib\libpa9.a(PA_BgTiles.o) (PA_SetVideoMode)
c:/ndsdev/devkitPro/PAlib/lib\libpa9.a(PA_Text.o)
                              c:/ndsdev/devkitPro/PAlib/lib\libpa9.a(PA_Inits.o) (PA_textpal)
c:/ndsdev/devkitPro/PAlib/lib\libpa9.a(PA_Text8bit.o)
                              c:/ndsdev/devkitPro/PAlib/lib\libpa9.a(PA_NewBg.o) (bit8_tiles)
c:/ndsdev/devkitPro/PAlib/lib\libpa9.a(PA_TextBits.o)
                              c:/ndsdev/devkitPro/PAlib/lib\libpa9.a(PA_Text8bit.o) (PA_LetterPos)
c:/ndsdev/devkitPro/PAlib/lib\libpa9.a(PA_TiledFont.o)
                              c:/ndsdev/devkitPro/PAlib/lib\libpa9.a(PA_Text.o) (PA_TiledFont)
c:/ndsdev/devkitPro/PAlib/lib\libpa9.a(PA_BmpFont0.o)
                              c:/ndsdev/devkitPro/PAlib/lib\libpa9.a(PA_Inits.o) (PA_BmpFont0)
c:/ndsdev/devkitPro/PAlib/lib\libpa9.a(PA_BmpFont1.o)
                              c:/ndsdev/devkitPro/PAlib/lib\libpa9.a(PA_Inits.o) (PA_BmpFont1)
c:/ndsdev/devkitPro/PAlib/lib\libpa9.a(PA_BmpFont2.o)
                              c:/ndsdev/devkitPro/PAlib/lib\libpa9.a(PA_Inits.o) (PA_BmpFont2)
c:/ndsdev/devkitPro/PAlib/lib\libpa9.a(PA_BmpFont3.o)
                              c:/ndsdev/devkitPro/PAlib/lib\libpa9.a(PA_Inits.o) (PA_BmpFont3)
c:/ndsdev/devkitPro/PAlib/lib\libpa9.a(PA_BmpFont4.o)
                              c:/ndsdev/devkitPro/PAlib/lib\libpa9.a(PA_Inits.o) (PA_BmpFont4)
c:/ndsdev/devkitPro/PAlib/lib\libpa9.a(PA_TiledFont_Map.bin.o)
                              c:/ndsdev/devkitPro/PAlib/lib\libpa9.a(PA_Inits.o) (PA_TiledFont_Map)
c:/ndsdev/devkitPro/PAlib/lib\libpa9.a(PA_TiledFont_Pal.bin.o)
                              c:/ndsdev/devkitPro/PAlib/lib\libpa9.a(PA_Inits.o) (PA_TiledFont_Pal)
c:/ndsdev/devkitPro/PAlib/lib\libpa9.a(PA_TiledFont_Tiles.bin.o)
                              c:/ndsdev/devkitPro/PAlib/lib\libpa9.a(PA_Inits.o) (PA_TiledFont_Tiles)
c:/ndsdev/devkitPro/PAlib/lib\libpa9.a(PA_BmpFont0_Map.bin.o)
                              c:/ndsdev/devkitPro/PAlib/lib\libpa9.a(PA_TextBits.o) (PA_BmpFont0_Map)
c:/ndsdev/devkitPro/PAlib/lib\libpa9.a(PA_BmpFont0_Sizes.bin.o)
                              c:/ndsdev/devkitPro/PAlib/lib\libpa9.a(PA_TextBits.o) (PA_BmpFont0_Sizes)
c:/ndsdev/devkitPro/PAlib/lib\libpa9.a(PA_BmpFont0_Tiles.bin.o)
                              c:/ndsdev/devkitPro/PAlib/lib\libpa9.a(PA_Inits.o) (PA_BmpFont0_Tiles_size)
c:/ndsdev/devkitPro/PAlib/lib\libpa9.a(PA_BmpFont1_Map.bin.o)
                              c:/ndsdev/devkitPro/PAlib/lib\libpa9.a(PA_TextBits.o) (PA_BmpFont1_Map)
c:/ndsdev/devkitPro/PAlib/lib\libpa9.a(PA_BmpFont1_Sizes.bin.o)
                              c:/ndsdev/devkitPro/PAlib/lib\libpa9.a(PA_TextBits.o) (PA_BmpFont1_Sizes)
c:/ndsdev/devkitPro/PAlib/lib\libpa9.a(PA_BmpFont1_Tiles.bin.o)
                              c:/ndsdev/devkitPro/PAlib/lib\libpa9.a(PA_Inits.o) (PA_BmpFont1_Tiles_size)
c:/ndsdev/devkitPro/PAlib/lib\libpa9.a(PA_BmpFont2_Map.bin.o)
                              c:/ndsdev/devkitPro/PAlib/lib\libpa9.a(PA_TextBits.o) (PA_BmpFont2_Map)
c:/ndsdev/devkitPro/PAlib/lib\libpa9.a(PA_BmpFont2_Sizes.bin.o)
                              c:/ndsdev/devkitPro/PAlib/lib\libpa9.a(PA_TextBits.o) (PA_BmpFont2_Sizes)
c:/ndsdev/devkitPro/PAlib/lib\libpa9.a(PA_BmpFont2_Tiles.bin.o)
                              c:/ndsdev/devkitPro/PAlib/lib\libpa9.a(PA_Inits.o) (PA_BmpFont2_Tiles_size)
c:/ndsdev/devkitPro/PAlib/lib\libpa9.a(PA_BmpFont3_Map.bin.o)
                              c:/ndsdev/devkitPro/PAlib/lib\libpa9.a(PA_TextBits.o) (PA_BmpFont3_Map)
c:/ndsdev/devkitPro/PAlib/lib\libpa9.a(PA_BmpFont3_Sizes.bin.o)
                              c:/ndsdev/devkitPro/PAlib/lib\libpa9.a(PA_TextBits.o) (PA_BmpFont3_Sizes)
c:/ndsdev/devkitPro/PAlib/lib\libpa9.a(PA_BmpFont3_Tiles.bin.o)
                              c:/ndsdev/devkitPro/PAlib/lib\libpa9.a(PA_Inits.o) (PA_BmpFont3_Tiles_size)
c:/ndsdev/devkitPro/PAlib/lib\libpa9.a(PA_BmpFont4_Map.bin.o)
                              c:/ndsdev/devkitPro/PAlib/lib\libpa9.a(PA_TextBits.o) (PA_BmpFont4_Map)
c:/ndsdev/devkitPro/PAlib/lib\libpa9.a(PA_BmpFont4_Sizes.bin.o)
                              c:/ndsdev/devkitPro/PAlib/lib\libpa9.a(PA_TextBits.o) (PA_BmpFont4_Sizes)
c:/ndsdev/devkitPro/PAlib/lib\libpa9.a(PA_BmpFont4_Tiles.bin.o)
                              c:/ndsdev/devkitPro/PAlib/lib\libpa9.a(PA_Inits.o) (PA_BmpFont4_Tiles_size)
c:/ndsdev/devkitPro/PAlib/lib\libpa9.a(PA_16c.o)
                              c:/ndsdev/devkitPro/PAlib/lib\libpa9.a(PA_NewBg.o) (c16_tiles)
c:/ndsdev/devkitPro/PAlib/lib\libpa9.a(PA_BgRot.o)
                              c:/ndsdev/devkitPro/PAlib/lib\libpa9.a(PA_NewBg.o) (PA_LoadRotBgMap)
c:/ndsdev/devkitPro/PAlib/lib\libpa9.a(PA_Draw.o)
                              c:/ndsdev/devkitPro/PAlib/lib\libpa9.a(PA_Text8bit.o) (PA_DrawBg)
c:/ndsdev/devkitPro/PAlib/lib\libpa9.a(PA_Fifo.o)
                              c:/ndsdev/devkitPro/PAlib/lib\libpa9.a(PA_Inits.o) (PA_InitFifo)
c:/ndsdev/devkitPro/PAlib/lib\libpa9.a(PA_Keyboard.o)
                              c:/ndsdev/devkitPro/PAlib/lib\libpa9.a(PA_NewBg.o) (PA_Keyboard_Struct)
c:/ndsdev/devkitPro/PAlib/lib\libpa9.a(PA_PaletteEx.o)
                              c:/ndsdev/devkitPro/PAlib/lib\libpa9.a(PA_Text.o) (PA_SetBgPalNCol)
c:/ndsdev/devkitPro/PAlib/lib\libpa9.a(keyboard.map.o)
                              c:/ndsdev/devkitPro/PAlib/lib\libpa9.a(PA_Keyboard.o) (keyboard_Map)
c:/ndsdev/devkitPro/PAlib/lib\libpa9.a(keyboard.pal.o)
                              c:/ndsdev/devkitPro/PAlib/lib\libpa9.a(PA_Keyboard.o) (keyboard_Palette)
c:/ndsdev/devkitPro/PAlib/lib\libpa9.a(keyboard.raw.o)
                              c:/ndsdev/devkitPro/PAlib/lib\libpa9.a(PA_Keyboard.o) (keyboard_Tiles)
c:/ndsdev/devkitPro/libnds/lib\libnds9.a(keys.o)
                              c:/ndsdev/devkitPro/PAlib/lib\libpa9.a(PA_Keys.o) (scanKeys)
c:/ndsdev/devkitPro/libnds/lib\libnds9.a(system.o)
                              c:/ndsdev/devkitPro/PAlib/lib\libpa9.a(PA_Inits.o) (powerOn)
c:/ndsdev/devkitPro/libnds/lib\libnds9.a(touch.o)
                              c:/ndsdev/devkitPro/PAlib/lib\libpa9.a(PA_Keys.o) (touchRead)
c:/ndsdev/devkitPro/libnds/lib\libnds9.a(video.o)
                              c:/ndsdev/devkitPro/PAlib/lib\libpa9.a(PA_Inits.o) (vramSetMainBanks)
c:/ndsdev/devkitPro/libnds/lib\libnds9.a(initSystem.o)
                              c:/ndsdev/devkitpro/devkitarm/bin/../lib/gcc/arm-eabi/4.5.1/../../../../arm-eabi/lib/thumb/ds_arm9_crt0.o (initSystem)
c:/ndsdev/devkitPro/libnds/lib\libnds9.a(fifosystem.o)
                              c:/ndsdev/devkitPro/PAlib/lib\libpa9.a(PA.o) (fifoSendValue32)
c:/ndsdev/devkitPro/libnds/lib\libnds9.a(interrupts.o)
                              c:/ndsdev/devkitPro/PAlib/lib\libpa9.a(PA.o) (irqSet)
c:/ndsdev/devkitPro/libnds/lib\libnds9.a(libnds_exit.o)
                              c:/ndsdev/devkitpro/devkitarm/bin/../lib/gcc/arm-eabi/4.5.1/../../../../arm-eabi/lib/thumb/ds_arm9_crt0.o (__libnds_exit)
c:/ndsdev/devkitPro/libnds/lib\libnds9.a(dcache.o)
                              c:/ndsdev/devkitPro/PAlib/lib\libpa9.a(PA_BgTiles.o) (DC_FlushRange)
c:/ndsdev/devkitPro/libnds/lib\libnds9.a(mpu_setup.o)
                              c:/ndsdev/devkitpro/devkitarm/bin/../lib/gcc/arm-eabi/4.5.1/../../../../arm-eabi/lib/thumb/ds_arm9_crt0.o (__libnds_mpu_setup)
c:/ndsdev/devkitPro/libnds/lib\libnds9.a(biosCalls.o)
                              c:/ndsdev/devkitPro/PAlib/lib\libpa9.a(PA.o) (swiDelay)
c:/ndsdev/devkitPro/libnds/lib\libnds9.a(interruptDispatcher.o)
                              c:/ndsdev/devkitPro/libnds/lib\libnds9.a(interrupts.o) (IntrMain)
c:/ndsdev/devkitPro/libnds/lib\libnds9.a(swiSoftReset.o)
                              c:/ndsdev/devkitPro/libnds/lib\libnds9.a(fifosystem.o) (swiSoftReset)
c:/ndsdev/devkitpro/devkitarm/bin/../lib/gcc/arm-eabi/4.5.1/thumb\libgcc.a(_udivsi3.o)
                              game.o (__aeabi_uidivmod)
c:/ndsdev/devkitpro/devkitarm/bin/../lib/gcc/arm-eabi/4.5.1/thumb\libgcc.a(_divsi3.o)
                              c:/ndsdev/devkitPro/PAlib/lib\libpa9.a(PA_Keys.o) (__aeabi_idiv)
c:/ndsdev/devkitpro/devkitarm/bin/../lib/gcc/arm-eabi/4.5.1/thumb\libgcc.a(_dvmd_tls.o)
                              c:/ndsdev/devkitpro/devkitarm/bin/../lib/gcc/arm-eabi/4.5.1/thumb\libgcc.a(_udivsi3.o) (__aeabi_idiv0)
c:/ndsdev/devkitpro/devkitarm/bin/../lib/gcc/arm-eabi/4.5.1/thumb\libgcc.a(_arm_addsubdf3.o)
                              c:/ndsdev/devkitPro/PAlib/lib\libpa9.a(PA_Text.o) (__aeabi_dsub)
c:/ndsdev/devkitpro/devkitarm/bin/../lib/gcc/arm-eabi/4.5.1/thumb\libgcc.a(_arm_muldivdf3.o)
                              c:/ndsdev/devkitPro/PAlib/lib\libpa9.a(PA_Text.o) (__aeabi_dmul)
c:/ndsdev/devkitpro/devkitarm/bin/../lib/gcc/arm-eabi/4.5.1/thumb\libgcc.a(_arm_cmpdf2.o)
                              c:/ndsdev/devkitPro/PAlib/lib\libpa9.a(PA_Text.o) (__aeabi_dcmplt)
c:/ndsdev/devkitpro/devkitarm/bin/../lib/gcc/arm-eabi/4.5.1/thumb\libgcc.a(_arm_fixdfsi.o)
                              c:/ndsdev/devkitPro/PAlib/lib\libpa9.a(PA_Text.o) (__aeabi_d2iz)
c:/ndsdev/devkitpro/devkitarm/bin/../lib/gcc/arm-eabi/4.5.1/thumb\libgcc.a(_muldi3.o)
                              game.o (__aeabi_lmul)
c:/ndsdev/devkitpro/devkitarm/bin/../lib/gcc/arm-eabi/4.5.1/../../../../arm-eabi/lib/thumb\libg.a(lib_a-gmtime.o)
                              c:/ndsdev/devkitPro/PAlib/lib\libpa9.a(PA_RTC.o) (gmtime)
c:/ndsdev/devkitpro/devkitarm/bin/../lib/gcc/arm-eabi/4.5.1/../../../../arm-eabi/lib/thumb\libg.a(lib_a-gmtime_r.o)
                              c:/ndsdev/devkitpro/devkitarm/bin/../lib/gcc/arm-eabi/4.5.1/../../../../arm-eabi/lib/thumb\libg.a(lib_a-gmtime.o) (gmtime_r)
c:/ndsdev/devkitpro/devkitarm/bin/../lib/gcc/arm-eabi/4.5.1/../../../../arm-eabi/lib/thumb\libg.a(lib_a-impure.o)
                              c:/ndsdev/devkitpro/devkitarm/bin/../lib/gcc/arm-eabi/4.5.1/../../../../arm-eabi/lib/thumb\libg.a(lib_a-gmtime.o) (_impure_ptr)
c:/ndsdev/devkitpro/devkitarm/bin/../lib/gcc/arm-eabi/4.5.1/../../../../arm-eabi/lib/thumb\libg.a(lib_a-init.o)
                              c:/ndsdev/devkitpro/devkitarm/bin/../lib/gcc/arm-eabi/4.5.1/../../../../arm-eabi/lib/thumb/ds_arm9_crt0.o (__libc_init_array)
c:/ndsdev/devkitpro/devkitarm/bin/../lib/gcc/arm-eabi/4.5.1/../../../../arm-eabi/lib/thumb\libg.a(lib_a-locale.o)
                              c:/ndsdev/devkitPro/PAlib/lib\libpa9.a(PA_Inits.o) (setlocale)
c:/ndsdev/devkitpro/devkitarm/bin/../lib/gcc/arm-eabi/4.5.1/../../../../arm-eabi/lib/thumb\libg.a(lib_a-malloc.o)
                              c:/ndsdev/devkitPro/PAlib/lib\libpa9.a(PA_Text8bit.o) (malloc)
c:/ndsdev/devkitpro/devkitarm/bin/../lib/gcc/arm-eabi/4.5.1/../../../../arm-eabi/lib/thumb\libg.a(lib_a-mallocr.o)
                              c:/ndsdev/devkitpro/devkitarm/bin/../lib/gcc/arm-eabi/4.5.1/../../../../arm-eabi/lib/thumb\libg.a(lib_a-malloc.o) (_malloc_r)
c:/ndsdev/devkitpro/devkitarm/bin/../lib/gcc/arm-eabi/4.5.1/../../../../arm-eabi/lib/thumb\libg.a(lib_a-mbtowc_r.o)
                              c:/ndsdev/devkitpro/devkitarm/bin/../lib/gcc/arm-eabi/4.5.1/../../../../arm-eabi/lib/thumb\libg.a(lib_a-locale.o) (__utf8_mbtowc)
c:/ndsdev/devkitpro/devkitarm/bin/../lib/gcc/arm-eabi/4.5.1/../../../../arm-eabi/lib/thumb\libg.a(lib_a-memcpy.o)
                              c:/ndsdev/devkitPro/PAlib/lib\libpa9.a(PA_Stuff.o) (memcpy)
c:/ndsdev/devkitpro/devkitarm/bin/../lib/gcc/arm-eabi/4.5.1/../../../../arm-eabi/lib/thumb\libg.a(lib_a-mktm_r.o)
                              c:/ndsdev/devkitpro/devkitarm/bin/../lib/gcc/arm-eabi/4.5.1/../../../../arm-eabi/lib/thumb\libg.a(lib_a-gmtime_r.o) (_mktm_r)
c:/ndsdev/devkitpro/devkitarm/bin/../lib/gcc/arm-eabi/4.5.1/../../../../arm-eabi/lib/thumb\libg.a(lib_a-mlock.o)
                              c:/ndsdev/devkitpro/devkitarm/bin/../lib/gcc/arm-eabi/4.5.1/../../../../arm-eabi/lib/thumb\libg.a(lib_a-mallocr.o) (__malloc_lock)
c:/ndsdev/devkitpro/devkitarm/bin/../lib/gcc/arm-eabi/4.5.1/../../../../arm-eabi/lib/thumb\libg.a(lib_a-strcasecmp.o)
                              c:/ndsdev/devkitPro/PAlib/lib\libpa9.a(PA_Stuff.o) (strcasecmp)
c:/ndsdev/devkitpro/devkitarm/bin/../lib/gcc/arm-eabi/4.5.1/../../../../arm-eabi/lib/thumb\libg.a(lib_a-strcat.o)
                              c:/ndsdev/devkitPro/PAlib/lib\libpa9.a(PA_Stuff.o) (strcat)
c:/ndsdev/devkitpro/devkitarm/bin/../lib/gcc/arm-eabi/4.5.1/../../../../arm-eabi/lib/thumb\libg.a(lib_a-strchr.o)
                              c:/ndsdev/devkitpro/devkitarm/bin/../lib/gcc/arm-eabi/4.5.1/../../../../arm-eabi/lib/thumb\libg.a(lib_a-locale.o) (strchr)
c:/ndsdev/devkitpro/devkitarm/bin/../lib/gcc/arm-eabi/4.5.1/../../../../arm-eabi/lib/thumb\libg.a(lib_a-strcmp.o)
                              c:/ndsdev/devkitPro/PAlib/lib\libpa9.a(PA_Stuff.o) (strcmp)
c:/ndsdev/devkitpro/devkitarm/bin/../lib/gcc/arm-eabi/4.5.1/../../../../arm-eabi/lib/thumb\libg.a(lib_a-strcpy.o)
                              c:/ndsdev/devkitPro/PAlib/lib\libpa9.a(PA_Stuff.o) (strcpy)
c:/ndsdev/devkitpro/devkitarm/bin/../lib/gcc/arm-eabi/4.5.1/../../../../arm-eabi/lib/thumb\libg.a(lib_a-strlcpy.o)
                              c:/ndsdev/devkitpro/devkitarm/bin/../lib/gcc/arm-eabi/4.5.1/../../../../arm-eabi/lib/thumb\libg.a(lib_a-locale.o) (strlcpy)
c:/ndsdev/devkitpro/devkitarm/bin/../lib/gcc/arm-eabi/4.5.1/../../../../arm-eabi/lib/thumb\libg.a(lib_a-strlen.o)
                              c:/ndsdev/devkitPro/PAlib/lib\libpa9.a(PA_Stuff.o) (strlen)
c:/ndsdev/devkitpro/devkitarm/bin/../lib/gcc/arm-eabi/4.5.1/../../../../arm-eabi/lib/thumb\libg.a(lib_a-strncasecmp.o)
                              c:/ndsdev/devkitpro/devkitarm/bin/../lib/gcc/arm-eabi/4.5.1/../../../../arm-eabi/lib/thumb\libg.a(lib_a-locale.o) (strncasecmp)
c:/ndsdev/devkitpro/devkitarm/bin/../lib/gcc/arm-eabi/4.5.1/../../../../arm-eabi/lib/thumb\libg.a(lib_a-strncmp.o)
                              c:/ndsdev/devkitpro/devkitarm/bin/../lib/gcc/arm-eabi/4.5.1/../../../../arm-eabi/lib/thumb\libg.a(lib_a-locale.o) (strncmp)
c:/ndsdev/devkitpro/devkitarm/bin/../lib/gcc/arm-eabi/4.5.1/../../../../arm-eabi/lib/thumb\libg.a(lib_a-strncpy.o)
                              c:/ndsdev/devkitpro/devkitarm/bin/../lib/gcc/arm-eabi/4.5.1/../../../../arm-eabi/lib/thumb\libg.a(lib_a-locale.o) (strncpy)
c:/ndsdev/devkitpro/devkitarm/bin/../lib/gcc/arm-eabi/4.5.1/../../../../arm-eabi/lib/thumb\libg.a(lib_a-strtol.o)
                              c:/ndsdev/devkitpro/devkitarm/bin/../lib/gcc/arm-eabi/4.5.1/../../../../arm-eabi/lib/thumb\libg.a(lib_a-locale.o) (_strtol_r)
c:/ndsdev/devkitpro/devkitarm/bin/../lib/gcc/arm-eabi/4.5.1/../../../../arm-eabi/lib/thumb\libg.a(lib_a-sysstat.o)
                              c:/ndsdev/devkitPro/PAlib/lib\libpa9.a(PA_Stuff.o) (stat)
c:/ndsdev/devkitpro/devkitarm/bin/../lib/gcc/arm-eabi/4.5.1/../../../../arm-eabi/lib/thumb\libg.a(lib_a-time.o)
                              c:/ndsdev/devkitPro/PAlib/lib\libpa9.a(PA_RTC.o) (time)
c:/ndsdev/devkitpro/devkitarm/bin/../lib/gcc/arm-eabi/4.5.1/../../../../arm-eabi/lib/thumb\libg.a(lib_a-tzlock.o)
                              c:/ndsdev/devkitpro/devkitarm/bin/../lib/gcc/arm-eabi/4.5.1/../../../../arm-eabi/lib/thumb\libg.a(lib_a-mktm_r.o) (__tz_lock)
c:/ndsdev/devkitpro/devkitarm/bin/../lib/gcc/arm-eabi/4.5.1/../../../../arm-eabi/lib/thumb\libg.a(lib_a-tzvars.o)
                              c:/ndsdev/devkitpro/devkitarm/bin/../lib/gcc/arm-eabi/4.5.1/../../../../arm-eabi/lib/thumb\libg.a(lib_a-mktm_r.o) (_daylight)
c:/ndsdev/devkitpro/devkitarm/bin/../lib/gcc/arm-eabi/4.5.1/../../../../arm-eabi/lib/thumb\libg.a(lib_a-wctomb_r.o)
                              c:/ndsdev/devkitpro/devkitarm/bin/../lib/gcc/arm-eabi/4.5.1/../../../../arm-eabi/lib/thumb\libg.a(lib_a-locale.o) (__utf8_wctomb)
c:/ndsdev/devkitpro/devkitarm/bin/../lib/gcc/arm-eabi/4.5.1/../../../../arm-eabi/lib/thumb\libg.a(lib_a-ctype_.o)
                              c:/ndsdev/devkitpro/devkitarm/bin/../lib/gcc/arm-eabi/4.5.1/../../../../arm-eabi/lib/thumb\libg.a(lib_a-locale.o) (__set_ctype)
c:/ndsdev/devkitpro/devkitarm/bin/../lib/gcc/arm-eabi/4.5.1/../../../../arm-eabi/lib/thumb\libg.a(lib_a-freer.o)
                              c:/ndsdev/devkitpro/devkitarm/bin/../lib/gcc/arm-eabi/4.5.1/../../../../arm-eabi/lib/thumb\libg.a(lib_a-malloc.o) (_free_r)
c:/ndsdev/devkitpro/devkitarm/bin/../lib/gcc/arm-eabi/4.5.1/../../../../arm-eabi/lib/thumb\libg.a(lib_a-getenv_r.o)
                              c:/ndsdev/devkitpro/devkitarm/bin/../lib/gcc/arm-eabi/4.5.1/../../../../arm-eabi/lib/thumb\libg.a(lib_a-locale.o) (_getenv_r)
c:/ndsdev/devkitpro/devkitarm/bin/../lib/gcc/arm-eabi/4.5.1/../../../../arm-eabi/lib/thumb\libg.a(lib_a-gettzinfo.o)
                              c:/ndsdev/devkitpro/devkitarm/bin/../lib/gcc/arm-eabi/4.5.1/../../../../arm-eabi/lib/thumb\libg.a(lib_a-mktm_r.o) (__gettzinfo)
c:/ndsdev/devkitpro/devkitarm/bin/../lib/gcc/arm-eabi/4.5.1/../../../../arm-eabi/lib/thumb\libg.a(lib_a-environ.o)
                              c:/ndsdev/devkitpro/devkitarm/bin/../lib/gcc/arm-eabi/4.5.1/../../../../arm-eabi/lib/thumb\libg.a(lib_a-getenv_r.o) (environ)
c:/ndsdev/devkitpro/devkitarm/bin/../lib/gcc/arm-eabi/4.5.1/../../../../arm-eabi/lib/thumb\libg.a(lib_a-envlock.o)
                              c:/ndsdev/devkitpro/devkitarm/bin/../lib/gcc/arm-eabi/4.5.1/../../../../arm-eabi/lib/thumb\libg.a(lib_a-getenv_r.o) (__env_lock)
c:/ndsdev/devkitpro/devkitarm/bin/../lib/gcc/arm-eabi/4.5.1/../../../../arm-eabi/lib/thumb\libsysbase.a(sbrk.o)
                              c:/ndsdev/devkitpro/devkitarm/bin/../lib/gcc/arm-eabi/4.5.1/../../../../arm-eabi/lib/thumb\libg.a(lib_a-mallocr.o) (_sbrk_r)
c:/ndsdev/devkitpro/devkitarm/bin/../lib/gcc/arm-eabi/4.5.1/../../../../arm-eabi/lib/thumb\libsysbase.a(stat.o)
                              c:/ndsdev/devkitpro/devkitarm/bin/../lib/gcc/arm-eabi/4.5.1/../../../../arm-eabi/lib/thumb\libg.a(lib_a-sysstat.o) (_stat_r)
c:/ndsdev/devkitpro/devkitarm/bin/../lib/gcc/arm-eabi/4.5.1/../../../../arm-eabi/lib/thumb\libsysbase.a(times.o)
                              c:/ndsdev/devkitpro/devkitarm/bin/../lib/gcc/arm-eabi/4.5.1/../../../../arm-eabi/lib/thumb\libg.a(lib_a-time.o) (_gettimeofday_r)
c:/ndsdev/devkitpro/devkitarm/bin/../lib/gcc/arm-eabi/4.5.1/../../../../arm-eabi/lib/thumb\libsysbase.a(malloc_vars.o)
                              c:/ndsdev/devkitpro/devkitarm/bin/../lib/gcc/arm-eabi/4.5.1/../../../../arm-eabi/lib/thumb/ds_arm9_crt0.o (fake_heap_end)
c:/ndsdev/devkitpro/devkitarm/bin/../lib/gcc/arm-eabi/4.5.1/../../../../arm-eabi/lib/thumb\libsysbase.a(build_argv.o)
                              c:/ndsdev/devkitpro/devkitarm/bin/../lib/gcc/arm-eabi/4.5.1/../../../../arm-eabi/lib/thumb/ds_arm9_crt0.o (build_argv)
c:/ndsdev/devkitpro/devkitarm/bin/../lib/gcc/arm-eabi/4.5.1/../../../../arm-eabi/lib/thumb\libsysbase.a(syscall_support.o)
                              c:/ndsdev/devkitPro/libnds/lib\libnds9.a(initSystem.o) (__syscalls)
c:/ndsdev/devkitpro/devkitarm/bin/../lib/gcc/arm-eabi/4.5.1/../../../../arm-eabi/lib/thumb\libsysbase.a(dirent.o)
                              c:/ndsdev/devkitPro/PAlib/lib\libpa9.a(PA_Stuff.o) (opendir)
c:/ndsdev/devkitpro/devkitarm/bin/../lib/gcc/arm-eabi/4.5.1/../../../../arm-eabi/lib/thumb\libsysbase.a(iosupport.o)
                              c:/ndsdev/devkitpro/devkitarm/bin/../lib/gcc/arm-eabi/4.5.1/../../../../arm-eabi/lib/thumb\libsysbase.a(stat.o) (FindDevice)
c:/ndsdev/devkitpro/devkitarm/bin/../lib/gcc/arm-eabi/4.5.1/../../../../arm-eabi/lib/thumb\libsysbase.a(dir.o)
                              c:/ndsdev/devkitpro/devkitarm/bin/../lib/gcc/arm-eabi/4.5.1/../../../../arm-eabi/lib/thumb\libsysbase.a(dirent.o) (diropen)
c:/ndsdev/devkitpro/devkitarm/bin/../lib/gcc/arm-eabi/4.5.1/../../../../arm-eabi/lib/thumb\libg.a(lib_a-errno.o)
                              c:/ndsdev/devkitpro/devkitarm/bin/../lib/gcc/arm-eabi/4.5.1/../../../../arm-eabi/lib/thumb\libsysbase.a(times.o) (__errno)
c:/ndsdev/devkitpro/devkitarm/bin/../lib/gcc/arm-eabi/4.5.1/../../../../arm-eabi/lib/thumb\libg.a(lib_a-strnlen.o)
                              c:/ndsdev/devkitpro/devkitarm/bin/../lib/gcc/arm-eabi/4.5.1/../../../../arm-eabi/lib/thumb\libsysbase.a(dirent.o) (strnlen)

Allocating common symbols
Common symbol       size              file

PA_ScreenSpace      0x2               c:/ndsdev/devkitPro/PAlib/lib\libpa9.a(PA.o)
PA_Reco             0xc               c:/ndsdev/devkitPro/PAlib/lib\libpa9.a(PA_Reco.o)
fifo_datamsg_data   0x40              c:/ndsdev/devkitPro/libnds/lib\libnds9.a(fifosystem.o)
PA_Draw16           0x8               c:/ndsdev/devkitPro/PAlib/lib\libpa9.a(PA_16c.o)
PA_RTC              0x8               c:/ndsdev/devkitPro/PAlib/lib\libpa9.a(PA_RTC.o)
free_mem            0x2000            c:/ndsdev/devkitPro/PAlib/lib\libpa9.a(PA_Sprite.o)
PadPointer          0x4               c:/ndsdev/devkitPro/PAlib/lib\libpa9.a(PA.o)
fifo_buffer         0x800             c:/ndsdev/devkitPro/libnds/lib\libnds9.a(fifosystem.o)
PA_texttiles        0x8               c:/ndsdev/devkitPro/PAlib/lib\libpa9.a(PA_Text.o)
n_free_mem          0x4               c:/ndsdev/devkitPro/PAlib/lib\libpa9.a(PA_Sprite.o)
PA_SpritePrio       0x100             c:/ndsdev/devkitPro/PAlib/lib\libpa9.a(PA_Sprite.o)
PA_LetterPos        0x3004            c:/ndsdev/devkitPro/PAlib/lib\libpa9.a(PA_TextBits.o)
PA_olddowntime      0x4               c:/ndsdev/devkitPro/PAlib/lib\libpa9.a(PA_Draw.o)
PA_Keyboard_Struct  0x12              c:/ndsdev/devkitPro/PAlib/lib\libpa9.a(PA_Keyboard.o)
PA_VBLCounter       0x40              c:/ndsdev/devkitPro/PAlib/lib\libpa9.a(PA_Interrupt.o)
PA_parallaxY        0x20              c:/ndsdev/devkitPro/PAlib/lib\libpa9.a(PA_BgTiles.o)
used_mem            0x800             c:/ndsdev/devkitPro/PAlib/lib\libpa9.a(PA_Sprite.o)
fifo_value32_func   0x40              c:/ndsdev/devkitPro/libnds/lib\libnds9.a(fifosystem.o)
fifo_address_func   0x40              c:/ndsdev/devkitPro/libnds/lib\libnds9.a(fifosystem.o)
PA_parallaxX        0x20              c:/ndsdev/devkitPro/PAlib/lib\libpa9.a(PA_BgTiles.o)
PA_DrawBg32         0x8               c:/ndsdev/devkitPro/PAlib/lib\libpa9.a(PA_Draw.o)
pa_checklid         0x1               c:/ndsdev/devkitPro/PAlib/lib\libpa9.a(PA.o)
PA_RecoInfo         0x18              c:/ndsdev/devkitPro/PAlib/lib\libpa9.a(PA_Reco.o)
spriteanims         0x2400            c:/ndsdev/devkitPro/PAlib/lib\libpa9.a(PA_Sprite.o)
PA_SpriteAnimP      0x2000            c:/ndsdev/devkitPro/PAlib/lib\libpa9.a(PA_Sprite.o)
PA_IPC              0x198             c:/ndsdev/devkitPro/PAlib/lib\libpa9.a(PA.o)
Pad                 0x27              c:/ndsdev/devkitPro/PAlib/lib\libpa9.a(PA.o)
PA_TextBox          0x8               c:/ndsdev/devkitPro/PAlib/lib\libpa9.a(PA_Text.o)
PAbgtext            0x2               c:/ndsdev/devkitPro/PAlib/lib\libpa9.a(PA_Text.o)
tempsize            0x2               c:/ndsdev/devkitPro/PAlib/lib\libpa9.a(PA_BgTiles.o)
pa_printx           0x8               c:/ndsdev/devkitPro/PAlib/lib\libpa9.a(PA_Text.o)
pa_bittextpoliceheight
                    0xa               c:/ndsdev/devkitPro/PAlib/lib\libpa9.a(PA_TextBits.o)
Stylus              0x1c              c:/ndsdev/devkitPro/PAlib/lib\libpa9.a(PA.o)
PA_first            0x200             c:/ndsdev/devkitPro/PAlib/lib\libpa9.a(PA_Sprite.o)
pa_bittextsizes     0xa               c:/ndsdev/devkitPro/PAlib/lib\libpa9.a(PA_TextBits.o)
fifo_value32_data   0x40              c:/ndsdev/devkitPro/libnds/lib\libnds9.a(fifosystem.o)
charblocks          0x8c              c:/ndsdev/devkitPro/PAlib/lib\libpa9.a(PA_BgTiles.o)
PA_next             0x100             c:/ndsdev/devkitPro/PAlib/lib\libpa9.a(PA_Sprite.o)
PA_bgmap            0x20              c:/ndsdev/devkitPro/PAlib/lib\libpa9.a(PA.o)
PA_GifInfo          0x14              c:/ndsdev/devkitPro/PAlib/lib\libpa9.a(PA.o)
fifo_value32_queue  0x40              c:/ndsdev/devkitPro/libnds/lib\libnds9.a(fifosystem.o)
PA_StylusPos        0x9c40            c:/ndsdev/devkitPro/PAlib/lib\libpa9.a(PA_Reco.o)
fifo_data_queue     0x40              c:/ndsdev/devkitPro/libnds/lib\libnds9.a(fifosystem.o)
rotbg_size          0x8               c:/ndsdev/devkitPro/PAlib/lib\libpa9.a(PA_BgRot.o)
PA_VBLCounterOn     0x10              c:/ndsdev/devkitPro/PAlib/lib\libpa9.a(PA_Interrupt.o)
pa_printy           0x8               c:/ndsdev/devkitPro/PAlib/lib\libpa9.a(PA_Text.o)
PA_DrawBg           0x8               c:/ndsdev/devkitPro/PAlib/lib\libpa9.a(PA_Draw.o)
PA_oldx             0x4               c:/ndsdev/devkitPro/PAlib/lib\libpa9.a(PA_Draw.o)
textcol             0x4               c:/ndsdev/devkitPro/PAlib/lib\libpa9.a(PA_Text.o)
PA_drawsize         0x2               c:/ndsdev/devkitPro/PAlib/lib\libpa9.a(PA_Draw.o)
obj_per_gfx         0x800             c:/ndsdev/devkitPro/PAlib/lib\libpa9.a(PA_Sprite.o)
PA_CustomShape      0xd48             c:/ndsdev/devkitPro/PAlib/lib\libpa9.a(PA_Reco.o)
PA_RecoShape        0x10              c:/ndsdev/devkitPro/PAlib/lib\libpa9.a(PA_Reco.o)
pa_printscroll      0x4               c:/ndsdev/devkitPro/PAlib/lib\libpa9.a(PA_Text.o)
PA_oldy             0x4               c:/ndsdev/devkitPro/PAlib/lib\libpa9.a(PA_Draw.o)
PA_MovedSprite      0x10              c:/ndsdev/devkitPro/PAlib/lib\libpa9.a(PA.o)
PA_BgInfo           0x220             c:/ndsdev/devkitPro/PAlib/lib\libpa9.a(PA_BgTiles.o)
tempvar             0x2               c:/ndsdev/devkitPro/PAlib/lib\libpa9.a(PA_Draw.o)
punixTime           0x4               c:/ndsdev/devkitpro/devkitarm/bin/../lib/gcc/arm-eabi/4.5.1/../../../../arm-eabi/lib/thumb\libsysbase.a(times.o)
fifo_address_data   0x40              c:/ndsdev/devkitPro/libnds/lib\libnds9.a(fifosystem.o)
_PA_LidDown         0x1               c:/ndsdev/devkitPro/PAlib/lib\libpa9.a(PA_Keys.o)
PA_temppal          0x200             c:/ndsdev/devkitPro/PAlib/lib\libpa9.a(PA_Draw.o)
PA_UserInfo         0x52              c:/ndsdev/devkitPro/PAlib/lib\libpa9.a(PA_RTC.o)
scrollpos           0xe0              c:/ndsdev/devkitPro/PAlib/lib\libpa9.a(PA_BgTiles.o)
PA_obj              0x800             c:/ndsdev/devkitPro/PAlib/lib\libpa9.a(PA_Sprite.o)
DualSpriteX         0x100             c:/ndsdev/devkitPro/PAlib/lib\libpa9.a(PA_Sprite.o)
PA_textpal          0x8               c:/ndsdev/devkitPro/PAlib/lib\libpa9.a(PA_Text.o)
PA_nBit             0x2               c:/ndsdev/devkitPro/PAlib/lib\libpa9.a(PA_Draw.o)
fifo_datamsg_func   0x40              c:/ndsdev/devkitPro/libnds/lib\libnds9.a(fifosystem.o)
PA_Draw1632         0x8               c:/ndsdev/devkitPro/PAlib/lib\libpa9.a(PA_16c.o)
pa_obj_created      0x100             c:/ndsdev/devkitPro/PAlib/lib\libpa9.a(PA_Sprite.o)
fifo_address_queue  0x40              c:/ndsdev/devkitPro/libnds/lib\libnds9.a(fifosystem.o)
PA_textmap          0x8               c:/ndsdev/devkitPro/PAlib/lib\libpa9.a(PA_Text.o)
PA_ExtPal           0x4               c:/ndsdev/devkitPro/PAlib/lib\libpa9.a(PA_Palette.o)

Memory Configuration

Name             Origin             Length             Attributes
rom              0x08000000         0x02000000
ewram            0x02000000         0x003ff000
dtcm             0x0b000000         0x00004000
vectors          0x01000000         0x00000100
itcm             0x01000100         0x00007f00
*default*        0x00000000         0xffffffff

Linker script and memory map

                0x01000000                __vectors_start = 0x1000000
                0x01000100                __itcm_start = 0x1000100
                0x023ff000                __ewram_end = 0x23ff000
                0x023ff000                __eheap_end = 0x23ff000
                0x0b000000                __dtcm_start = 0xb000000
                0x0b004000                __dtcm_top = 0xb004000
                0x0b003ff8                __irq_flags = (__dtcm_top - 0x8)
                0x0b003ffc                __irq_vector = (__dtcm_top - 0x4)
                0x0b003f00                __sp_svc = (__dtcm_top - 0x100)
                0x0b003e00                __sp_irq = (__sp_svc - 0x100)
                0x0b003d00                __sp_usr = (__sp_irq - 0x100)

.init           0x02000000      0x23c
                0x02000000                __text_start = .
 *(.init)
 .init          0x02000000      0x230 c:/ndsdev/devkitpro/devkitarm/bin/../lib/gcc/arm-eabi/4.5.1/../../../../arm-eabi/lib/thumb/ds_arm9_crt0.o
                0x02000000                _start
 .init          0x02000230        0x4 c:/ndsdev/devkitpro/devkitarm/bin/../lib/gcc/arm-eabi/4.5.1/thumb/crti.o
                0x02000230                _init
 .init          0x02000234        0x8 c:/ndsdev/devkitpro/devkitarm/bin/../lib/gcc/arm-eabi/4.5.1/thumb/crtn.o
                0x0200023c                . = ALIGN (0x4)

.plt
 *(.plt)

.text           0x02000240     0xcf80
 *(EXCLUDE_FILE(*.itcm*) .text)
 .text          0x02000240        0x0 c:/ndsdev/devkitpro/devkitarm/bin/../lib/gcc/arm-eabi/4.5.1/../../../../arm-eabi/lib/thumb/ds_arm9_crt0.o
 .text          0x02000240        0x0 c:/ndsdev/devkitpro/devkitarm/bin/../lib/gcc/arm-eabi/4.5.1/thumb/crti.o
 .text          0x02000240       0x6c c:/ndsdev/devkitpro/devkitarm/bin/../lib/gcc/arm-eabi/4.5.1/thumb/crtbegin.o
 .text          0x020002ac        0x0 Town_Map.o
 .text          0x020002ac        0x0 Town_Pal.o
 .text          0x020002ac        0x0 Town_Tiles.o
 .text          0x020002ac        0x0 bg_main_down_Map.o
 .text          0x020002ac        0x0 bg_main_down_Pal.o
 .text          0x020002ac        0x0 bg_main_down_Tiles.o
 .text          0x020002ac        0x0 bg_main_up_Map.o
 .text          0x020002ac        0x0 bg_main_up_Pal.o
 .text          0x020002ac        0x0 bg_main_up_Tiles.o
 .text          0x020002ac        0x0 bg_menu_Map.o
 .text          0x020002ac        0x0 bg_menu_Pal.o
 .text          0x020002ac        0x0 bg_menu_Tiles.o
 .text          0x020002ac        0x0 bg_stage1_init_Map.o
 .text          0x020002ac        0x0 bg_stage1_init_Pal.o
 .text          0x020002ac        0x0 bg_stage1_init_Tiles.o
 .text          0x020002ac        0x0 bg_stage2_init_Map.o
 .text          0x020002ac        0x0 bg_stage2_init_Pal.o
 .text          0x020002ac        0x0 bg_stage2_init_Tiles.o
 .text          0x020002ac        0x0 bg_stage3_init_Map.o
 .text          0x020002ac        0x0 bg_stage3_init_Pal.o
 .text          0x020002ac        0x0 bg_stage3_init_Tiles.o
 .text          0x020002ac        0x0 gameover_Map.o
 .text          0x020002ac        0x0 gameover_Pal.o
 .text          0x020002ac        0x0 gameover_Tiles.o
 .text          0x020002ac        0x0 hpminus_Pal.o
 .text          0x020002ac        0x0 hpminus_Sprite.o
 .text          0x020002ac        0x0 monster_Pal.o
 .text          0x020002ac        0x0 monster_Sprite.o
 .text          0x020002ac        0x0 princess_Pal.o
 .text          0x020002ac        0x0 princess_Sprite.o
 .text          0x020002ac        0x0 som_Pal.o
 .text          0x020002ac        0x0 som_Sprite.o
 .text          0x020002ac        0x0 sprite1_Pal.o
 .text          0x020002ac        0x0 sprite1_Sprite.o
 .text          0x020002ac        0x0 stage1_Map.o
 .text          0x020002ac        0x0 stage1_Pal.o
 .text          0x020002ac        0x0 stage1_Tiles.o
 .text          0x020002ac        0x0 stage2_Map.o
 .text          0x020002ac        0x0 stage2_Pal.o
 .text          0x020002ac        0x0 stage2_Tiles.o
 .text          0x020002ac        0x0 water_Pal.o
 .text          0x020002ac        0x0 water_Sprite.o
 .text          0x020002ac        0x0 Town.o
 .text          0x020002ac        0x0 bg_main_down.o
 .text          0x020002ac        0x0 bg_main_up.o
 .text          0x020002ac        0x0 bg_menu.o
 .text          0x020002ac        0x0 bg_stage1_init.o
 .text          0x020002ac        0x0 bg_stage2_init.o
 .text          0x020002ac        0x0 bg_stage3_init.o
 .text          0x020002ac        0x0 gameover.o
 .text          0x020002ac        0x0 stage1.o
 .text          0x020002ac        0x0 stage2.o
 .text          0x020002ac       0x7c crystal.o
                0x020002ac                crystal::~crystal()
                0x020002ac                crystal::~crystal()
                0x020002b8                crystal::~crystal()
                0x020002d0                crystal::crystal()
                0x020002d0                crystal::crystal()
                0x020002e4                crystal::move(int, int)
                0x02000324                crystal::destory()
 .text          0x02000328       0xb0 crystal_Ball.o
                0x02000328                crystal_Ball::~crystal_Ball()
                0x02000328                crystal_Ball::~crystal_Ball()
                0x02000334                crystal_Ball::~crystal_Ball()
                0x0200034c                crystal_Ball::crystal_Ball()
                0x0200034c                crystal_Ball::crystal_Ball()
                0x02000368                crystal_Ball::move(int, int)
                0x020003b0                crystal_Ball::ball_setting(int, int)
 .text          0x020003d8      0x688 cs_api.o
                0x020003d8                sprite_print(void*, void*, int, int)
                0x0200043c                sprite_print2(void*, void*, int, int)
                0x020004ac                sprite_print_dual(void*, void*, int, int, int, int)
                0x02000640                sprite_print_dual2(void*, void*, int, int, int, int)
                0x020007dc                dualback_print(PA_BgStruct const*)
                0x02000814                move_sprite(unsigned char, int, int)
                0x0200083c                dual_move(unsigned char, int, int)
                0x02000914                press_key_move()
                0x020009d8                touch_key_move()
                0x02000a00                A_press_key()
                0x02000a0c                UnLoad_Screen()
                0x02000a30                wait(int)
 .text          0x02000a60      0x5c8 game.o
                0x02000a60                init_singleplay()
                0x02000aa8                singleplay_start()
 .text          0x02001028       0xe8 hero.o
                0x02001028                hero::hero()
                0x02001028                hero::hero()
                0x0200104c                hero::~hero()
                0x0200104c                hero::~hero()
                0x02001050                hero::move()
 .text          0x02001110       0x74 main.o
                0x02001110                main
 .text          0x02001184       0xa0 menu.o
                0x02001184                ret_next()
                0x020011b0                sel_menu()
 .text          0x02001224       0xb8 monster.o
                0x02001224                monster::~monster()
                0x02001224                monster::~monster()
                0x02001230                monster::~monster()
                0x02001248                monster::monster()
                0x02001248                monster::monster()
                0x02001260                monster::monster_setting(int, int, int)
                0x02001288                monster::move(int)
 .text          0x020012dc       0x8c princess.o
                0x020012dc                princess::~princess()
                0x020012dc                princess::~princess()
                0x020012e8                princess::~princess()
                0x02001300                princess::princess()
                0x02001300                princess::princess()
                0x0200132c                princess::move(int)
 .text          0x02001368       0xb4 water.o
                0x02001368                water::~water()
                0x02001368                water::~water()
                0x02001374                water::~water()
                0x0200138c                water::water()
                0x0200138c                water::water()
                0x020013a0                water::water_setting(int, int)
                0x020013c8                water::move(int)
 .text          0x0200141c       0xbc c:/ndsdev/devkitPro/PAlib/lib\libpa9.a(PA.o)
                0x0200141c                PA_SetBrightness
                0x0200145c                PA_Nothing
                0x02001460                PA_CheckLid
 .text          0x020014d8      0x338 c:/ndsdev/devkitPro/PAlib/lib\libpa9.a(PA_BgEasy.o)
                0x020014d8                PA_EasyBgScrollX
                0x02001564                PA_EasyBgScrollY
                0x020015f0                PA_StoreEasyBgInfos
                0x0200162c                PA_EasyBgLoadEx
 .text          0x02001810      0xccc c:/ndsdev/devkitPro/PAlib/lib\libpa9.a(PA_BgLargeMap.o)
                0x02001810                PA_LargeScrollXN
                0x020019cc                PA_LargeScrollYN
                0x02001b7c                PA_InfLargeScrollXN
                0x02001d60                PA_InfLargeScrollYN
                0x02001f48                PA_UpdateTileEngineX
                0x02002084                PA_UpdateTileEngineY
                0x020021bc                PA_InfTilesScrollX
                0x0200224c                PA_InfTilesScrollY
                0x020022dc                PA_InitLargeBg
 .text          0x020024dc      0x6f0 c:/ndsdev/devkitPro/PAlib/lib\libpa9.a(PA_BgTiles.o)
                0x020024dc                PA_ReLoadBgTiles
                0x02002524                PA_InitBg
                0x0200260c                PA_DeleteTiles
                0x020026a0                PA_LoadBgTilesEx
                0x020028b0                PA_DeleteMap
                0x0200292c                PA_LoadBgMap
                0x02002aa8                PA_ResetBgSysScreen
                0x02002bbc                PA_ResetBgSys
 .text          0x02002bcc       0x84 c:/ndsdev/devkitPro/PAlib/lib\libpa9.a(PA_Error.o)
                0x02002bcc                PA_Error
                0x02002bec                _PA_Assert
 .text          0x02002c50      0x278 c:/ndsdev/devkitPro/PAlib/lib\libpa9.a(PA_Inits.o)
                0x02002c50                PA_Init2D
                0x02002cac                PA_Init
 .text          0x02002ec8       0x78 c:/ndsdev/devkitPro/PAlib/lib\libpa9.a(PA_Interrupt.o)
                0x02002ec8                PA_VBLCountersReset
                0x02002ee8                PA_vblFunc
 .text          0x02002f40      0x2e0 c:/ndsdev/devkitPro/PAlib/lib\libpa9.a(PA_Keys.o)
                0x02002f40                PA_UpdatePad
                0x02003158                PA_UpdateStylus
 .text          0x02003220      0x158 c:/ndsdev/devkitPro/PAlib/lib\libpa9.a(PA_Math.o)
                0x02003220                PA_AdjustAngle
 .text          0x02003378      0x824 c:/ndsdev/devkitPro/PAlib/lib\libpa9.a(PA_NewBg.o)
                0x02003378                PA_LoadBackground
                0x02003874                PA_LoadText
                0x020039a8                PA_LoadKeyboard
                0x02003afc                PA_AddBitmapFont
                0x02003b4c                PA_Add16cFont
 .text          0x02003b9c      0x244 c:/ndsdev/devkitPro/PAlib/lib\libpa9.a(PA_Palette.o)
                0x02003b9c                PA_LoadSpriteExtPal
                0x02003c54                PA_InitSpriteExtPal
                0x02003cac                PA_LoadBgPalN
                0x02003d7c                PA_InitBgExtPal
 .text          0x02003de0       0xc4 c:/ndsdev/devkitPro/PAlib/lib\libpa9.a(PA_RTC.o)
                0x02003de0                PA_UpdateUserInfo
                0x02003e64                PA_UpdateRTC
 .text          0x02003ea4      0x4e4 c:/ndsdev/devkitPro/PAlib/lib\libpa9.a(PA_Reco.o)
                0x02003ea4                PA_StylusLine
                0x02004004                PA_AnalyzeShape
                0x02004304                PA_CheckLetter
 .text          0x02004388      0x7dc c:/ndsdev/devkitPro/PAlib/lib\libpa9.a(PA_Sprite.o)
                0x02004388                PA_InitSpriteExtPrio
                0x020043bc                PA_ResetSpriteSysScreen
                0x02004510                PA_ResetSpriteSys
                0x0200452c                PA_CreateGfx
                0x02004688                PA_DeleteGfx
                0x02004824                PA_DeleteSprite
                0x02004978                PA_InitSpriteDraw
                0x020049d8                PA_UpdateOAM
                0x02004b2c                PA_UpdateSpriteVBL
 .text          0x02004b64      0x3d8 c:/ndsdev/devkitPro/PAlib/lib\libpa9.a(PA_SpriteAnim.o)
                0x02004b64                PA_UpdateSpriteAnims
                0x02004d7c                PA_StartSpriteAnimEx
 .text          0x02004f3c      0x1b4 c:/ndsdev/devkitPro/PAlib/lib\libpa9.a(PA_Stuff.o)
                0x02004f3c                PA_SetVideoMode
                0x02004f60                PA_Locate
 .text          0x020050f0      0xa98 c:/ndsdev/devkitPro/PAlib/lib\libpa9.a(PA_Text.o)
                0x020050f0                PA_CreateTextPal
                0x0200519c                PA_LoadDefaultText
                0x02005264                PA_OutputSimpleText
                0x02005340                PA_OutputText
                0x02005ae0                PA_ClearTextBg
 .text          0x02005b88     0x1230 c:/ndsdev/devkitPro/PAlib/lib\libpa9.a(PA_Text8bit.o)
                0x02005b88                NoLetter
                0x02005b8c                Letter
                0x02005f7c                RotLetter2
                0x020063c0                RotLetter
                0x02006808                TranspLetter
                0x02006c2c                pa_8bitTextDecompress
                0x02006ca4                PA_8bitText
                0x02006d54                PA_CenterSmartText
 .text          0x02006db8      0x428 c:/ndsdev/devkitPro/PAlib/lib\libpa9.a(PA_TextBits.o)
                0x02006db8                PA_DoAlign
                0x02006f0c                PA_DoLetterPos
 .text          0x020071e0        0x0 c:/ndsdev/devkitPro/PAlib/lib\libpa9.a(PA_TiledFont.o)
 .text          0x020071e0        0x0 c:/ndsdev/devkitPro/PAlib/lib\libpa9.a(PA_BmpFont0.o)
 .text          0x020071e0        0x0 c:/ndsdev/devkitPro/PAlib/lib\libpa9.a(PA_BmpFont1.o)
 .text          0x020071e0        0x0 c:/ndsdev/devkitPro/PAlib/lib\libpa9.a(PA_BmpFont2.o)
 .text          0x020071e0        0x0 c:/ndsdev/devkitPro/PAlib/lib\libpa9.a(PA_BmpFont3.o)
 .text          0x020071e0        0x0 c:/ndsdev/devkitPro/PAlib/lib\libpa9.a(PA_BmpFont4.o)
 .text          0x020071e0        0x0 c:/ndsdev/devkitPro/PAlib/lib\libpa9.a(PA_TiledFont_Map.bin.o)
 .text          0x020071e0        0x0 c:/ndsdev/devkitPro/PAlib/lib\libpa9.a(PA_TiledFont_Pal.bin.o)
 .text          0x020071e0        0x0 c:/ndsdev/devkitPro/PAlib/lib\libpa9.a(PA_TiledFont_Tiles.bin.o)
 .text          0x020071e0        0x0 c:/ndsdev/devkitPro/PAlib/lib\libpa9.a(PA_BmpFont0_Map.bin.o)
 .text          0x020071e0        0x0 c:/ndsdev/devkitPro/PAlib/lib\libpa9.a(PA_BmpFont0_Sizes.bin.o)
 .text          0x020071e0        0x0 c:/ndsdev/devkitPro/PAlib/lib\libpa9.a(PA_BmpFont0_Tiles.bin.o)
 .text          0x020071e0        0x0 c:/ndsdev/devkitPro/PAlib/lib\libpa9.a(PA_BmpFont1_Map.bin.o)
 .text          0x020071e0        0x0 c:/ndsdev/devkitPro/PAlib/lib\libpa9.a(PA_BmpFont1_Sizes.bin.o)
 .text          0x020071e0        0x0 c:/ndsdev/devkitPro/PAlib/lib\libpa9.a(PA_BmpFont1_Tiles.bin.o)
 .text          0x020071e0        0x0 c:/ndsdev/devkitPro/PAlib/lib\libpa9.a(PA_BmpFont2_Map.bin.o)
 .text          0x020071e0        0x0 c:/ndsdev/devkitPro/PAlib/lib\libpa9.a(PA_BmpFont2_Sizes.bin.o)
 .text          0x020071e0        0x0 c:/ndsdev/devkitPro/PAlib/lib\libpa9.a(PA_BmpFont2_Tiles.bin.o)
 .text          0x020071e0        0x0 c:/ndsdev/devkitPro/PAlib/lib\libpa9.a(PA_BmpFont3_Map.bin.o)
 .text          0x020071e0        0x0 c:/ndsdev/devkitPro/PAlib/lib\libpa9.a(PA_BmpFont3_Sizes.bin.o)
 .text          0x020071e0        0x0 c:/ndsdev/devkitPro/PAlib/lib\libpa9.a(PA_BmpFont3_Tiles.bin.o)
 .text          0x020071e0        0x0 c:/ndsdev/devkitPro/PAlib/lib\libpa9.a(PA_BmpFont4_Map.bin.o)
 .text          0x020071e0        0x0 c:/ndsdev/devkitPro/PAlib/lib\libpa9.a(PA_BmpFont4_Sizes.bin.o)
 .text          0x020071e0        0x0 c:/ndsdev/devkitPro/PAlib/lib\libpa9.a(PA_BmpFont4_Tiles.bin.o)
 .text          0x020071e0      0x6d0 c:/ndsdev/devkitPro/PAlib/lib\libpa9.a(PA_16c.o)
                0x020071e0                PA_16c8X8Color
                0x02007338                PA_Init16cBgEx
                0x020074d8                pa_16cTextDecompress
                0x02007564                PA_16cText
                0x020076e8                PA_16cErase
                0x02007720                PA_16cClearZone
 .text          0x020078b0      0x188 c:/ndsdev/devkitPro/PAlib/lib\libpa9.a(PA_BgRot.o)
                0x020078b0                PA_LoadRotBgMap
 .text          0x02007a38      0x2b4 c:/ndsdev/devkitPro/PAlib/lib\libpa9.a(PA_Draw.o)
                0x02007a38                PA_LoadBmpToBuffer
 .text          0x02007cec       0x50 c:/ndsdev/devkitPro/PAlib/lib\libpa9.a(PA_Fifo.o)
                0x02007cec                PA_FifoMsgHandler
                0x02007d28                PA_InitFifo
 .text          0x02007d3c      0x604 c:/ndsdev/devkitPro/PAlib/lib\libpa9.a(PA_Keyboard.o)
                0x02007d3c                PA_ReloadKeyboardCol
                0x02007e1c                PA_LoadDefaultKeyboard
                0x02007f78                PA_ChangeKeyboardType
                0x020080f8                PA_SetLetterPal
                0x02008218                PA_CheckKeyboard
 .text          0x02008340      0x1e8 c:/ndsdev/devkitPro/PAlib/lib\libpa9.a(PA_PaletteEx.o)
                0x02008340                PA_CreatePalBright
                0x02008404                PA_CreatePalTransition
                0x0200846c                PA_SetBgPalNCol
                0x020084bc                PA_SetSpritePalCol
                0x02008504                PA_3DSetSpritePalCol
 .text          0x02008528        0x0 c:/ndsdev/devkitPro/PAlib/lib\libpa9.a(keyboard.map.o)
 .text          0x02008528        0x0 c:/ndsdev/devkitPro/PAlib/lib\libpa9.a(keyboard.pal.o)
 .text          0x02008528        0x0 c:/ndsdev/devkitPro/PAlib/lib\libpa9.a(keyboard.raw.o)
 .text          0x02008528       0xf8 c:/ndsdev/devkitPro/libnds/lib\libnds9.a(keys.o)
                0x02008528                scanKeys
                0x02008598                keysHeld
                0x020085a4                keysDown
                0x020085b4                keysDownRepeat
                0x020085c4                keysSetRepeat
                0x020085dc                keysUp
                0x020085ec                keysCurrent
 .text          0x02008620       0xf4 c:/ndsdev/devkitPro/libnds/lib\libnds9.a(system.o)
                0x02008620                systemMsgHandler
                0x02008664                systemSleep
                0x0200867c                powerValueHandler
                0x0200868c                powerOn
                0x020086b8                powerOff
                0x020086e0                ledBlink
                0x020086f4                getBatteryLevel
 .text          0x02008714       0x4c c:/ndsdev/devkitPro/libnds/lib\libnds9.a(touch.o)
                0x02008714                touchRead
                0x0200873c                touchReadXY
 .text          0x02008760       0xb4 c:/ndsdev/devkitPro/libnds/lib\libnds9.a(video.o)
                0x02008760                vramSetMainBanks
                0x020087a4                vramRestoreMainBanks
                0x020087b0                setBrightness
                0x020087f0                vramDefault
 .text          0x02008814      0x140 c:/ndsdev/devkitPro/libnds/lib\libnds9.a(initSystem.o)
                0x02008814                initSystem
 .text          0x02008954      0xc98 c:/ndsdev/devkitPro/libnds/lib\libnds9.a(fifosystem.o)
                0x02008bc4                fifoSendAddress
                0x02008bf0                fifoSendValue32
                0x02008c30                fifoSendDatamsg
                0x02008ca8                fifoGetAddress
                0x02008d18                fifoSetAddressHandler
                0x02008d8c                fifoGetValue32
                0x02008df8                fifoSetValue32Handler
                0x02008e6c                fifoGetDatamsg
                0x020092fc                fifoSetDatamsgHandler
                0x02009394                fifoCheckAddress
                0x020093b8                fifoCheckDatamsg
                0x020093dc                fifoCheckValue32
                0x02009400                fifoInit
 .text          0x020095ec      0x1cc c:/ndsdev/devkitPro/libnds/lib\libnds9.a(interrupts.o)
                0x020095ec                irqDummy
                0x020095f0                irqSet
                0x0200965c                irqInit
                0x020096a8                irqInitHandler
                0x020096d8                irqEnable
                0x02009738                irqDisable
                0x0200978c                irqClear
 .text          0x020097b8       0x40 c:/ndsdev/devkitPro/libnds/lib\libnds9.a(libnds_exit.o)
                0x020097b8                systemErrorExit
                0x020097bc                __libnds_exit
 .text          0x020097f8       0x70 c:/ndsdev/devkitPro/libnds/lib\libnds9.a(dcache.o)
                0x020097f8                DC_FlushAll
                0x02009824                DC_FlushRange
                0x02009840                DC_InvalidateAll
                0x0200984c                DC_InvalidateRange
 .text          0x02009868      0x1b4 c:/ndsdev/devkitPro/libnds/lib\libnds9.a(mpu_setup.o)
                0x02009868                __libnds_mpu_setup
                0x020099a8                memCached
                0x020099c0                memUncached
 *fill*         0x02009a1c        0x4 ff
 .text          0x02009a20       0x70 c:/ndsdev/devkitPro/libnds/lib\libnds9.a(biosCalls.o)
                0x02009a20                swiDelay
                0x02009a24                swiIntrWait
                0x02009a28                swiWaitForVBlank
                0x02009a2c                swiSleep
                0x02009a30                swiChangeSoundBias
                0x02009a34                swiDivide
                0x02009a38                swiRemainder
                0x02009a3e                swiDivMod
                0x02009a4a                swiCopy
                0x02009a4e                swiFastCopy
                0x02009a52                swiSqrt
                0x02009a56                swiCRC16
                0x02009a5a                swiIsDebugger
                0x02009a5e                swiUnpackBits
                0x02009a62                swiDecompressLZSSWram
                0x02009a66                swiDecompressLZSSVram
                0x02009a6a                swiDecompressHuffman
                0x02009a6e                swiDecompressRLEWram
                0x02009a72                swiDecompressRLEVram
                0x02009a76                swiWaitForIRQ
                0x02009a7a                swiDecodeDelta8
                0x02009a7e                swiDecodeDelta16
                0x02009a82                swiSetHaltCR
 .text          0x02009a90        0x0 c:/ndsdev/devkitPro/libnds/lib\libnds9.a(interruptDispatcher.o)
 .text          0x02009a90       0x30 c:/ndsdev/devkitPro/libnds/lib\libnds9.a(swiSoftReset.o)
                0x02009a90                swiSoftReset
 .text          0x02009ac0      0x11c c:/ndsdev/devkitpro/devkitarm/bin/../lib/gcc/arm-eabi/4.5.1/thumb\libgcc.a(_udivsi3.o)
                0x02009ac0                __aeabi_uidiv
                0x02009ac0                __udivsi3
                0x02009bbc                __aeabi_uidivmod
 .text          0x02009bdc      0x150 c:/ndsdev/devkitpro/devkitarm/bin/../lib/gcc/arm-eabi/4.5.1/thumb\libgcc.a(_divsi3.o)
                0x02009bdc                __divsi3
                0x02009bdc                __aeabi_idiv
                0x02009d0c                __aeabi_idivmod
 .text          0x02009d2c        0x4 c:/ndsdev/devkitpro/devkitarm/bin/../lib/gcc/arm-eabi/4.5.1/thumb\libgcc.a(_dvmd_tls.o)
                0x02009d2c                __aeabi_idiv0
                0x02009d2c                __aeabi_ldiv0
 .text          0x02009d30      0x41c c:/ndsdev/devkitpro/devkitarm/bin/../lib/gcc/arm-eabi/4.5.1/thumb\libgcc.a(_arm_addsubdf3.o)
                0x02009d30                __aeabi_drsub
                0x02009d38                __aeabi_dsub
                0x02009d38                __subdf3
                0x02009d3c                __aeabi_dadd
                0x02009d3c                __adddf3
                0x0200a04c                __floatunsidf
                0x0200a04c                __aeabi_ui2d
                0x0200a070                __floatsidf
                0x0200a070                __aeabi_i2d
                0x0200a098                __aeabi_f2d
                0x0200a098                __extendsfdf2
                0x0200a0d8                __floatundidf
                0x0200a0d8                __aeabi_ul2d
                0x0200a0ec                __floatdidf
                0x0200a0ec                __aeabi_l2d
 .text          0x0200a14c      0x49c c:/ndsdev/devkitpro/devkitarm/bin/../lib/gcc/arm-eabi/4.5.1/thumb\libgcc.a(_arm_muldivdf3.o)
                0x0200a14c                __aeabi_dmul
                0x0200a14c                __muldf3
                0x0200a3dc                __divdf3
                0x0200a3dc                __aeabi_ddiv
 .text          0x0200a5e8      0x144 c:/ndsdev/devkitpro/devkitarm/bin/../lib/gcc/arm-eabi/4.5.1/thumb\libgcc.a(_arm_cmpdf2.o)
                0x0200a5e8                __gtdf2
                0x0200a5e8                __gedf2
                0x0200a5f0                __ltdf2
                0x0200a5f0                __ledf2
                0x0200a5f8                __nedf2
                0x0200a5f8                __eqdf2
                0x0200a5f8                __cmpdf2
                0x0200a680                __aeabi_cdrcmple
                0x0200a69c                __aeabi_cdcmpeq
                0x0200a69c                __aeabi_cdcmple
                0x0200a6b4                __aeabi_dcmpeq
                0x0200a6cc                __aeabi_dcmplt
                0x0200a6e4                __aeabi_dcmple
                0x0200a6fc                __aeabi_dcmpge
                0x0200a714                __aeabi_dcmpgt
 .text          0x0200a72c       0x5c c:/ndsdev/devkitpro/devkitarm/bin/../lib/gcc/arm-eabi/4.5.1/thumb\libgcc.a(_arm_fixdfsi.o)
                0x0200a72c                __aeabi_d2iz
                0x0200a72c                __fixdfsi
 .text          0x0200a788       0x4c c:/ndsdev/devkitpro/devkitarm/bin/../lib/gcc/arm-eabi/4.5.1/thumb\libgcc.a(_muldi3.o)
                0x0200a788                __muldi3
                0x0200a788                __aeabi_lmul
 .text          0x0200a7d4       0x18 c:/ndsdev/devkitpro/devkitarm/bin/../lib/gcc/arm-eabi/4.5.1/../../../../arm-eabi/lib/thumb\libg.a(lib_a-gmtime.o)
                0x0200a7d4                gmtime
 .text          0x0200a7ec       0x10 c:/ndsdev/devkitpro/devkitarm/bin/../lib/gcc/arm-eabi/4.5.1/../../../../arm-eabi/lib/thumb\libg.a(lib_a-gmtime_r.o)
                0x0200a7ec                gmtime_r
 .text          0x0200a7fc        0x0 c:/ndsdev/devkitpro/devkitarm/bin/../lib/gcc/arm-eabi/4.5.1/../../../../arm-eabi/lib/thumb\libg.a(lib_a-impure.o)
 .text          0x0200a7fc       0x88 c:/ndsdev/devkitpro/devkitarm/bin/../lib/gcc/arm-eabi/4.5.1/../../../../arm-eabi/lib/thumb\libg.a(lib_a-init.o)
                0x0200a7fc                __libc_init_array
                0x0200a84c                __libc_fini_array
 .text          0x0200a884      0x7dc c:/ndsdev/devkitpro/devkitarm/bin/../lib/gcc/arm-eabi/4.5.1/../../../../arm-eabi/lib/thumb\libg.a(lib_a-locale.o)
                0x0200adf4                _setlocale_r
                0x0200b010                __locale_charset
                0x0200b01c                __locale_msgcharset
                0x0200b028                __locale_cjk_lang
                0x0200b034                _localeconv_r
                0x0200b03c                setlocale
                0x0200b058                localeconv
 .text          0x0200b060       0x30 c:/ndsdev/devkitpro/devkitarm/bin/../lib/gcc/arm-eabi/4.5.1/../../../../arm-eabi/lib/thumb\libg.a(lib_a-malloc.o)
                0x0200b060                malloc
                0x0200b078                free
 .text          0x0200b090      0x518 c:/ndsdev/devkitpro/devkitarm/bin/../lib/gcc/arm-eabi/4.5.1/../../../../arm-eabi/lib/thumb\libg.a(lib_a-mallocr.o)
                0x0200b090                _malloc_r
 .text          0x0200b5a8      0x5e0 c:/ndsdev/devkitpro/devkitarm/bin/../lib/gcc/arm-eabi/4.5.1/../../../../arm-eabi/lib/thumb\libg.a(lib_a-mbtowc_r.o)
                0x0200b5a8                __utf8_mbtowc
                0x0200b84c                _mbtowc_r
                0x0200b888                __ascii_mbtowc
                0x0200b8b8                __sjis_mbtowc
                0x0200b97c                __eucjp_mbtowc
                0x0200ba6c                __jis_mbtowc
 .text          0x0200bb88       0x84 c:/ndsdev/devkitpro/devkitarm/bin/../lib/gcc/arm-eabi/4.5.1/../../../../arm-eabi/lib/thumb\libg.a(lib_a-memcpy.o)
                0x0200bb88                memcpy
 .text          0x0200bc0c      0x47c c:/ndsdev/devkitpro/devkitarm/bin/../lib/gcc/arm-eabi/4.5.1/../../../../arm-eabi/lib/thumb\libg.a(lib_a-mktm_r.o)
                0x0200bc0c                __tzcalc_limits
                0x0200bd94                _mktm_r
 .text          0x0200c088        0x8 c:/ndsdev/devkitpro/devkitarm/bin/../lib/gcc/arm-eabi/4.5.1/../../../../arm-eabi/lib/thumb\libg.a(lib_a-mlock.o)
                0x0200c088                __malloc_lock
                0x0200c08c                __malloc_unlock
 .text          0x0200c090       0x54 c:/ndsdev/devkitpro/devkitarm/bin/../lib/gcc/arm-eabi/4.5.1/../../../../arm-eabi/lib/thumb\libg.a(lib_a-strcasecmp.o)
                0x0200c090                strcasecmp
 .text          0x0200c0e4       0x48 c:/ndsdev/devkitpro/devkitarm/bin/../lib/gcc/arm-eabi/4.5.1/../../../../arm-eabi/lib/thumb\libg.a(lib_a-strcat.o)
                0x0200c0e4                strcat
 .text          0x0200c12c       0xe8 c:/ndsdev/devkitpro/devkitarm/bin/../lib/gcc/arm-eabi/4.5.1/../../../../arm-eabi/lib/thumb\libg.a(lib_a-strchr.o)
                0x0200c12c                strchr
 .text          0x0200c214       0x14 c:/ndsdev/devkitpro/devkitarm/bin/../lib/gcc/arm-eabi/4.5.1/../../../../arm-eabi/lib/thumb\libg.a(lib_a-strcmp.o)
                0x0200c214                strcmp
 .text          0x0200c228       0x10 c:/ndsdev/devkitpro/devkitarm/bin/../lib/gcc/arm-eabi/4.5.1/../../../../arm-eabi/lib/thumb\libg.a(lib_a-strcpy.o)
                0x0200c228                strcpy
 .text          0x0200c238       0x4c c:/ndsdev/devkitpro/devkitarm/bin/../lib/gcc/arm-eabi/4.5.1/../../../../arm-eabi/lib/thumb\libg.a(lib_a-strlcpy.o)
                0x0200c238                strlcpy
 .text          0x0200c284       0x10 c:/ndsdev/devkitpro/devkitarm/bin/../lib/gcc/arm-eabi/4.5.1/../../../../arm-eabi/lib/thumb\libg.a(lib_a-strlen.o)
                0x0200c284                strlen
 .text          0x0200c294       0x60 c:/ndsdev/devkitpro/devkitarm/bin/../lib/gcc/arm-eabi/4.5.1/../../../../arm-eabi/lib/thumb\libg.a(lib_a-strncasecmp.o)
                0x0200c294                strncasecmp
 .text          0x0200c2f4       0xc0 c:/ndsdev/devkitpro/devkitarm/bin/../lib/gcc/arm-eabi/4.5.1/../../../../arm-eabi/lib/thumb\libg.a(lib_a-strncmp.o)
                0x0200c2f4                strncmp
 .text          0x0200c3b4       0x6c c:/ndsdev/devkitpro/devkitarm/bin/../lib/gcc/arm-eabi/4.5.1/../../../../arm-eabi/lib/thumb\libg.a(lib_a-strncpy.o)
                0x0200c3b4                strncpy
 .text          0x0200c420      0x188 c:/ndsdev/devkitpro/devkitarm/bin/../lib/gcc/arm-eabi/4.5.1/../../../../arm-eabi/lib/thumb\libg.a(lib_a-strtol.o)
                0x0200c420                _strtol_r
                0x0200c588                strtol
 .text          0x0200c5a8       0x1c c:/ndsdev/devkitpro/devkitarm/bin/../lib/gcc/arm-eabi/4.5.1/../../../../arm-eabi/lib/thumb\libg.a(lib_a-sysstat.o)
                0x0200c5a8                stat
 .text          0x0200c5c4       0x34 c:/ndsdev/devkitpro/devkitarm/bin/../lib/gcc/arm-eabi/4.5.1/../../../../arm-eabi/lib/thumb\libg.a(lib_a-time.o)
                0x0200c5c4                time
 .text          0x0200c5f8        0x8 c:/ndsdev/devkitpro/devkitarm/bin/../lib/gcc/arm-eabi/4.5.1/../../../../arm-eabi/lib/thumb\libg.a(lib_a-tzlock.o)
                0x0200c5f8                __tz_lock
                0x0200c5fc                __tz_unlock
 .text          0x0200c600        0x0 c:/ndsdev/devkitpro/devkitarm/bin/../lib/gcc/arm-eabi/4.5.1/../../../../arm-eabi/lib/thumb\libg.a(lib_a-tzvars.o)
 .text          0x0200c600      0x294 c:/ndsdev/devkitpro/devkitarm/bin/../lib/gcc/arm-eabi/4.5.1/../../../../arm-eabi/lib/thumb\libg.a(lib_a-wctomb_r.o)
                0x0200c600                __utf8_wctomb
                0x0200c6c4                _wctomb_r
                0x0200c6fc                __ascii_wctomb
                0x0200c71c                __sjis_wctomb
                0x0200c78c                __eucjp_wctomb
                0x0200c810                __jis_wctomb
 .text          0x0200c894       0x10 c:/ndsdev/devkitpro/devkitarm/bin/../lib/gcc/arm-eabi/4.5.1/../../../../arm-eabi/lib/thumb\libg.a(lib_a-ctype_.o)
                0x0200c894                __set_ctype
 .text          0x0200c8a4      0x244 c:/ndsdev/devkitpro/devkitarm/bin/../lib/gcc/arm-eabi/4.5.1/../../../../arm-eabi/lib/thumb\libg.a(lib_a-freer.o)
                0x0200c8a4                _malloc_trim_r
                0x0200c948                _free_r
 .text          0x0200cae8       0xa8 c:/ndsdev/devkitpro/devkitarm/bin/../lib/gcc/arm-eabi/4.5.1/../../../../arm-eabi/lib/thumb\libg.a(lib_a-getenv_r.o)
                0x0200cae8                _findenv_r
                0x0200cb80                _getenv_r
 .text          0x0200cb90        0x8 c:/ndsdev/devkitpro/devkitarm/bin/../lib/gcc/arm-eabi/4.5.1/../../../../arm-eabi/lib/thumb\libg.a(lib_a-gettzinfo.o)
                0x0200cb90                __gettzinfo
 .text          0x0200cb98        0x0 c:/ndsdev/devkitpro/devkitarm/bin/../lib/gcc/arm-eabi/4.5.1/../../../../arm-eabi/lib/thumb\libg.a(lib_a-environ.o)
 .text          0x0200cb98        0x8 c:/ndsdev/devkitpro/devkitarm/bin/../lib/gcc/arm-eabi/4.5.1/../../../../arm-eabi/lib/thumb\libg.a(lib_a-envlock.o)
                0x0200cb98                __env_lock
                0x0200cb9c                __env_unlock
 .text          0x0200cba0       0x54 c:/ndsdev/devkitpro/devkitarm/bin/../lib/gcc/arm-eabi/4.5.1/../../../../arm-eabi/lib/thumb\libsysbase.a(sbrk.o)
                0x0200cba0                _sbrk_r
 .text          0x0200cbf4       0x40 c:/ndsdev/devkitpro/devkitarm/bin/../lib/gcc/arm-eabi/4.5.1/../../../../arm-eabi/lib/thumb\libsysbase.a(stat.o)
                0x0200cbf4                _stat_r
 .text          0x0200cc34       0x48 c:/ndsdev/devkitpro/devkitarm/bin/../lib/gcc/arm-eabi/4.5.1/../../../../arm-eabi/lib/thumb\libsysbase.a(times.o)
                0x0200cc34                _times
                0x0200cc48                _times_r
                0x0200cc50                _gettimeofday_r
 .text          0x0200cc7c        0x0 c:/ndsdev/devkitpro/devkitarm/bin/../lib/gcc/arm-eabi/4.5.1/../../../../arm-eabi/lib/thumb\libsysbase.a(malloc_vars.o)
 .text          0x0200cc7c       0x4c c:/ndsdev/devkitpro/devkitarm/bin/../lib/gcc/arm-eabi/4.5.1/../../../../arm-eabi/lib/thumb\libsysbase.a(build_argv.o)
                0x0200cc7c                build_argv
 .text          0x0200ccc8        0x0 c:/ndsdev/devkitpro/devkitarm/bin/../lib/gcc/arm-eabi/4.5.1/../../../../arm-eabi/lib/thumb\libsysbase.a(syscall_support.o)
 .text          0x0200ccc8      0x228 c:/ndsdev/devkitpro/devkitarm/bin/../lib/gcc/arm-eabi/4.5.1/../../../../arm-eabi/lib/thumb\libsysbase.a(dirent.o)
                0x0200ccc8                opendir
                0x0200cd0c                closedir
                0x0200cd38                readdir
                0x0200cdd0                readdir_r
                0x0200ce70                rewinddir
                0x0200ce88                seekdir
                0x0200cedc                telldir
 .text          0x0200cef0      0x144 c:/ndsdev/devkitpro/devkitarm/bin/../lib/gcc/arm-eabi/4.5.1/../../../../arm-eabi/lib/thumb\libsysbase.a(iosupport.o)
                0x0200cef0                setDefaultDevice
                0x0200cf04                FindDevice
                0x0200cf74                RemoveDevice
                0x0200cf98                AddDevice
                0x0200d014                GetDeviceOpTab
 .text          0x0200d034      0x148 c:/ndsdev/devkitpro/devkitarm/bin/../lib/gcc/arm-eabi/4.5.1/../../../../arm-eabi/lib/thumb\libsysbase.a(dir.o)
                0x0200d034                diropen
                0x0200d0ac                dirreset
                0x0200d0e8                dirnext
                0x0200d12c                dirclose
 .text          0x0200d17c        0xc c:/ndsdev/devkitpro/devkitarm/bin/../lib/gcc/arm-eabi/4.5.1/../../../../arm-eabi/lib/thumb\libg.a(lib_a-errno.o)
                0x0200d17c                __errno
 .text          0x0200d188       0x2c c:/ndsdev/devkitpro/devkitarm/bin/../lib/gcc/arm-eabi/4.5.1/../../../../arm-eabi/lib/thumb\libg.a(lib_a-strnlen.o)
                0x0200d188                strnlen
 .text          0x0200d1b4        0x0 c:/ndsdev/devkitpro/devkitarm/bin/../lib/gcc/arm-eabi/4.5.1/thumb/crtend.o
 .text          0x0200d1b4        0x0 c:/ndsdev/devkitpro/devkitarm/bin/../lib/gcc/arm-eabi/4.5.1/thumb/crtn.o
 *fill*         0x0200d1b4        0x4 ff
 .text.stub     0x0200d1b8        0x8 linker stubs
 *(.text.*)
 *(.stub)
 *(.gnu.warning)
 *(.gnu.linkonce.t*)
 *(.glue_7)
 .glue_7        0x00000000        0x0 linker stubs
 *(.glue_7t)
 .glue_7t       0x00000000        0x0 linker stubs
                0x0200d1c0                . = ALIGN (0x4)

.vfp11_veneer   0x00000000        0x0 load address 0x0200d1c0
 .vfp11_veneer  0x00000000        0x0 linker stubs

.v4_bx          0x00000000        0x0 load address 0x0200d1c0
 .v4_bx         0x00000000        0x0 linker stubs

.fini           0x0200d1c0        0xc
 *(.fini)
 .fini          0x0200d1c0        0x4 c:/ndsdev/devkitpro/devkitarm/bin/../lib/gcc/arm-eabi/4.5.1/thumb/crti.o
                0x0200d1c0                _fini
 .fini          0x0200d1c4        0x8 c:/ndsdev/devkitpro/devkitarm/bin/../lib/gcc/arm-eabi/4.5.1/thumb/crtn.o
                0x0200d1cc                __text_end = .

.rodata         0x0200d1d0    0x8e314
 *(.rodata)
 .rodata        0x0200d1d0    0x10004 Town_Map.o
                0x0200d1d0                Town_Map
                0x0201d1d0                Town_Map_size
                0x0201d1d0                Town_Map_end
 .rodata        0x0201d1d4      0x204 Town_Pal.o
                0x0201d1d4                Town_Pal
                0x0201d3d4                Town_Pal_size
                0x0201d3d4                Town_Pal_end
 .rodata        0x0201d3d8    0x1bf84 Town_Tiles.o
                0x0201d3d8                Town_Tiles
                0x02039358                Town_Tiles_end
                0x02039358                Town_Tiles_size
 .rodata        0x0203935c      0x604 bg_main_down_Map.o
                0x0203935c                bg_main_down_Map
                0x0203995c                bg_main_down_Map_size
                0x0203995c                bg_main_down_Map_end
 .rodata        0x02039960      0x204 bg_main_down_Pal.o
                0x02039960                bg_main_down_Pal
                0x02039b60                bg_main_down_Pal_end
                0x02039b60                bg_main_down_Pal_size
 .rodata        0x02039b64     0x2584 bg_main_down_Tiles.o
                0x02039b64                bg_main_down_Tiles
                0x0203c0e4                bg_main_down_Tiles_size
                0x0203c0e4                bg_main_down_Tiles_end
 .rodata        0x0203c0e8      0x604 bg_main_up_Map.o
                0x0203c0e8                bg_main_up_Map
                0x0203c6e8                bg_main_up_Map_end
                0x0203c6e8                bg_main_up_Map_size
 .rodata        0x0203c6ec      0x204 bg_main_up_Pal.o
                0x0203c6ec                bg_main_up_Pal
                0x0203c8ec                bg_main_up_Pal_size
                0x0203c8ec                bg_main_up_Pal_end
 .rodata        0x0203c8f0     0x36c4 bg_main_up_Tiles.o
                0x0203c8f0                bg_main_up_Tiles
                0x0203ffb0                bg_main_up_Tiles_end
                0x0203ffb0                bg_main_up_Tiles_size
 .rodata        0x0203ffb4      0x604 bg_menu_Map.o
                0x0203ffb4                bg_menu_Map
                0x020405b4                bg_menu_Map_end
                0x020405b4                bg_menu_Map_size
 .rodata        0x020405b8      0x204 bg_menu_Pal.o
                0x020405b8                bg_menu_Pal
                0x020407b8                bg_menu_Pal_end
                0x020407b8                bg_menu_Pal_size
 .rodata        0x020407bc     0x3104 bg_menu_Tiles.o
                0x020407bc                bg_menu_Tiles
                0x020438bc                bg_menu_Tiles_size
                0x020438bc                bg_menu_Tiles_end
 .rodata        0x020438c0      0x604 bg_stage1_init_Map.o
                0x020438c0                bg_stage1_init_Map
                0x02043ec0                bg_stage1_init_Map_size
                0x02043ec0                bg_stage1_init_Map_end
 .rodata        0x02043ec4      0x204 bg_stage1_init_Pal.o
                0x02043ec4                bg_stage1_init_Pal
                0x020440c4                bg_stage1_init_Pal_size
                0x020440c4                bg_stage1_init_Pal_end
 .rodata        0x020440c8     0x19c4 bg_stage1_init_Tiles.o
                0x020440c8                bg_stage1_init_Tiles
                0x02045a88                bg_stage1_init_Tiles_size
                0x02045a88                bg_stage1_init_Tiles_end
 .rodata        0x02045a8c      0x604 bg_stage2_init_Map.o
                0x02045a8c                bg_stage2_init_Map
                0x0204608c                bg_stage2_init_Map_size
                0x0204608c                bg_stage2_init_Map_end
 .rodata        0x02046090      0x204 bg_stage2_init_Pal.o
                0x02046090                bg_stage2_init_Pal
                0x02046290                bg_stage2_init_Pal_end
                0x02046290                bg_stage2_init_Pal_size
 .rodata        0x02046294     0x1804 bg_stage2_init_Tiles.o
                0x02046294                bg_stage2_init_Tiles
                0x02047a94                bg_stage2_init_Tiles_size
                0x02047a94                bg_stage2_init_Tiles_end
 .rodata        0x02047a98      0x604 bg_stage3_init_Map.o
                0x02047a98                bg_stage3_init_Map
                0x02048098                bg_stage3_init_Map_end
                0x02048098                bg_stage3_init_Map_size
 .rodata        0x0204809c      0x204 bg_stage3_init_Pal.o
                0x0204809c                bg_stage3_init_Pal
                0x0204829c                bg_stage3_init_Pal_end
                0x0204829c                bg_stage3_init_Pal_size
 .rodata        0x020482a0     0x1744 bg_stage3_init_Tiles.o
                0x020482a0                bg_stage3_init_Tiles
                0x020499e0                bg_stage3_init_Tiles_size
                0x020499e0                bg_stage3_init_Tiles_end
 .rodata        0x020499e4      0x604 gameover_Map.o
                0x020499e4                gameover_Map
                0x02049fe4                gameover_Map_size
                0x02049fe4                gameover_Map_end
 .rodata        0x02049fe8      0x204 gameover_Pal.o
                0x02049fe8                gameover_Pal
                0x0204a1e8                gameover_Pal_end
                0x0204a1e8                gameover_Pal_size
 .rodata        0x0204a1ec     0xba04 gameover_Tiles.o
                0x0204a1ec                gameover_Tiles
                0x02055bec                gameover_Tiles_end
                0x02055bec                gameover_Tiles_size
 .rodata        0x02055bf0      0x204 hpminus_Pal.o
                0x02055bf0                hpminus_Pal
                0x02055df0                hpminus_Pal_size
                0x02055df0                hpminus_Pal_end
 .rodata        0x02055df4      0x104 hpminus_Sprite.o
                0x02055df4                hpminus_Sprite
                0x02055ef4                hpminus_Sprite_size
                0x02055ef4                hpminus_Sprite_end
 .rodata        0x02055ef8      0x204 monster_Pal.o
                0x02055ef8                monster_Pal
                0x020560f8                monster_Pal_size
                0x020560f8                monster_Pal_end
 .rodata        0x020560fc      0x404 monster_Sprite.o
                0x020560fc                monster_Sprite
                0x020564fc                monster_Sprite_end
                0x020564fc                monster_Sprite_size
 .rodata        0x02056500      0x204 princess_Pal.o
                0x02056500                princess_Pal
                0x02056700                princess_Pal_size
                0x02056700                princess_Pal_end
 .rodata        0x02056704      0x204 princess_Sprite.o
                0x02056704                princess_Sprite
                0x02056904                princess_Sprite_end
                0x02056904                princess_Sprite_size
 .rodata        0x02056908      0x204 som_Pal.o
                0x02056908                som_Pal
                0x02056b08                som_Pal_size
                0x02056b08                som_Pal_end
 .rodata        0x02056b0c     0x1804 som_Sprite.o
                0x02056b0c                som_Sprite
                0x0205830c                som_Sprite_end
                0x0205830c                som_Sprite_size
 .rodata        0x02058310      0x204 sprite1_Pal.o
                0x02058310                sprite1_Pal
                0x02058510                sprite1_Pal_end
                0x02058510                sprite1_Pal_size
 .rodata        0x02058514     0x1004 sprite1_Sprite.o
                0x02058514                sprite1_Sprite
                0x02059514                sprite1_Sprite_size
                0x02059514                sprite1_Sprite_end
 .rodata        0x02059518     0x1904 stage1_Map.o
                0x02059518                stage1_Map
                0x0205ae18                stage1_Map_end
                0x0205ae18                stage1_Map_size
 .rodata        0x0205ae1c      0x204 stage1_Pal.o
                0x0205ae1c                stage1_Pal
                0x0205b01c                stage1_Pal_end
                0x0205b01c                stage1_Pal_size
 .rodata        0x0205b020    0x19004 stage1_Tiles.o
                0x0205b020                stage1_Tiles
                0x02074020                stage1_Tiles_end
                0x02074020                stage1_Tiles_size
 .rodata        0x02074024     0x1904 stage2_Map.o
                0x02074024                stage2_Map
                0x02075924                stage2_Map_size
                0x02075924                stage2_Map_end
 .rodata        0x02075928      0x204 stage2_Pal.o
                0x02075928                stage2_Pal
                0x02075b28                stage2_Pal_size
                0x02075b28                stage2_Pal_end
 .rodata        0x02075b2c    0x18704 stage2_Tiles.o
                0x02075b2c                stage2_Tiles
                0x0208e22c                stage2_Tiles_end
                0x0208e22c                stage2_Tiles_size
 .rodata        0x0208e230      0x204 water_Pal.o
                0x0208e230                water_Pal
                0x0208e430                water_Pal_end
                0x0208e430                water_Pal_size
 .rodata        0x0208e434      0x104 water_Sprite.o
                0x0208e434                water_Sprite
                0x0208e534                water_Sprite_size
                0x0208e534                water_Sprite_end
 .rodata        0x0208e538       0x20 Town.o
                0x0208e538                Town
 .rodata        0x0208e558       0x20 bg_main_down.o
                0x0208e558                bg_main_down
 .rodata        0x0208e578       0x20 bg_main_up.o
                0x0208e578                bg_main_up
 .rodata        0x0208e598       0x20 bg_menu.o
                0x0208e598                bg_menu
 .rodata        0x0208e5b8       0x20 bg_stage1_init.o
                0x0208e5b8                bg_stage1_init
 .rodata        0x0208e5d8       0x20 bg_stage2_init.o
                0x0208e5d8                bg_stage2_init
 .rodata        0x0208e5f8       0x20 bg_stage3_init.o
                0x0208e5f8                bg_stage3_init
 .rodata        0x0208e618       0x20 gameover.o
                0x0208e618                gameover
 .rodata        0x0208e638       0x20 stage1.o
                0x0208e638                stage1
 .rodata        0x0208e658       0x20 stage2.o
                0x0208e658                stage2
 .rodata        0x0208e678       0x10 crystal.o
                0x0208e678                vtable for crystal
 .rodata        0x0208e688       0x10 crystal_Ball.o
                0x0208e688                vtable for crystal_Ball
 .rodata        0x0208e698       0x10 monster.o
                0x0208e698                vtable for monster
 .rodata        0x0208e6a8       0x10 princess.o
                0x0208e6a8                vtable for princess
 .rodata        0x0208e6b8       0x10 water.o
                0x0208e6b8                vtable for water
 .rodata        0x0208e6c8       0x40 c:/ndsdev/devkitPro/PAlib/lib\libpa9.a(PA_Inits.o)
                0x0208e6c8                winfades
 .rodata        0x0208e708      0x400 c:/ndsdev/devkitPro/PAlib/lib\libpa9.a(PA_Math.o)
                0x0208e708                PA_SIN
 .rodata        0x0208eb08       0x30 c:/ndsdev/devkitPro/PAlib/lib\libpa9.a(PA_Sprite.o)
                0x0208eb08                PA_obj_sizes
                0x0208eb20                PA_size
 .rodata        0x0208eb38       0x20 c:/ndsdev/devkitPro/PAlib/lib\libpa9.a(PA_TiledFont.o)
                0x0208eb38                PA_TiledFont
 .rodata        0x0208eb58       0x20 c:/ndsdev/devkitPro/PAlib/lib\libpa9.a(PA_BmpFont0.o)
                0x0208eb58                PA_BmpFont0
 .rodata        0x0208eb78       0x20 c:/ndsdev/devkitPro/PAlib/lib\libpa9.a(PA_BmpFont1.o)
                0x0208eb78                PA_BmpFont1
 .rodata        0x0208eb98       0x20 c:/ndsdev/devkitPro/PAlib/lib\libpa9.a(PA_BmpFont2.o)
                0x0208eb98                PA_BmpFont2
 .rodata        0x0208ebb8       0x20 c:/ndsdev/devkitPro/PAlib/lib\libpa9.a(PA_BmpFont3.o)
                0x0208ebb8                PA_BmpFont3
 .rodata        0x0208ebd8       0x20 c:/ndsdev/devkitPro/PAlib/lib\libpa9.a(PA_BmpFont4.o)
                0x0208ebd8                PA_BmpFont4
 .rodata        0x0208ebf8      0x604 c:/ndsdev/devkitPro/PAlib/lib\libpa9.a(PA_TiledFont_Map.bin.o)
                0x0208ebf8                PA_TiledFont_Map
                0x0208f1f8                PA_TiledFont_Map_size
                0x0208f1f8                PA_TiledFont_Map_end
 .rodata        0x0208f1fc      0x204 c:/ndsdev/devkitPro/PAlib/lib\libpa9.a(PA_TiledFont_Pal.bin.o)
                0x0208f1fc                PA_TiledFont_Pal
                0x0208f3fc                PA_TiledFont_Pal_end
                0x0208f3fc                PA_TiledFont_Pal_size
 .rodata        0x0208f400     0x33c4 c:/ndsdev/devkitPro/PAlib/lib\libpa9.a(PA_TiledFont_Tiles.bin.o)
                0x0208f400                PA_TiledFont_Tiles
                0x020927c0                PA_TiledFont_Tiles_size
                0x020927c0                PA_TiledFont_Tiles_end
 .rodata        0x020927c4      0x204 c:/ndsdev/devkitPro/PAlib/lib\libpa9.a(PA_BmpFont0_Map.bin.o)
                0x020927c4                PA_BmpFont0_Map
                0x020929c4                PA_BmpFont0_Map_end
                0x020929c4                PA_BmpFont0_Map_size
 .rodata        0x020929c8      0x104 c:/ndsdev/devkitPro/PAlib/lib\libpa9.a(PA_BmpFont0_Sizes.bin.o)
                0x020929c8                PA_BmpFont0_Sizes
                0x02092ac8                PA_BmpFont0_Sizes_size
                0x02092ac8                PA_BmpFont0_Sizes_end
 .rodata        0x02092acc      0x324 c:/ndsdev/devkitPro/PAlib/lib\libpa9.a(PA_BmpFont0_Tiles.bin.o)
                0x02092acc                PA_BmpFont0_Tiles
                0x02092dec                PA_BmpFont0_Tiles_size
                0x02092dec                PA_BmpFont0_Tiles_end
 .rodata        0x02092df0      0x204 c:/ndsdev/devkitPro/PAlib/lib\libpa9.a(PA_BmpFont1_Map.bin.o)
                0x02092df0                PA_BmpFont1_Map
                0x02092ff0                PA_BmpFont1_Map_end
                0x02092ff0                PA_BmpFont1_Map_size
 .rodata        0x02092ff4      0x104 c:/ndsdev/devkitPro/PAlib/lib\libpa9.a(PA_BmpFont1_Sizes.bin.o)
                0x02092ff4                PA_BmpFont1_Sizes
                0x020930f4                PA_BmpFont1_Sizes_size
                0x020930f4                PA_BmpFont1_Sizes_end
 .rodata        0x020930f8      0x34c c:/ndsdev/devkitPro/PAlib/lib\libpa9.a(PA_BmpFont1_Tiles.bin.o)
                0x020930f8                PA_BmpFont1_Tiles
                0x02093440                PA_BmpFont1_Tiles_end
                0x02093440                PA_BmpFont1_Tiles_size
 .rodata        0x02093444      0x804 c:/ndsdev/devkitPro/PAlib/lib\libpa9.a(PA_BmpFont2_Map.bin.o)
                0x02093444                PA_BmpFont2_Map
                0x02093c44                PA_BmpFont2_Map_size
                0x02093c44                PA_BmpFont2_Map_end
 .rodata        0x02093c48      0x104 c:/ndsdev/devkitPro/PAlib/lib\libpa9.a(PA_BmpFont2_Sizes.bin.o)
                0x02093c48                PA_BmpFont2_Sizes
                0x02093d48                PA_BmpFont2_Sizes_end
                0x02093d48                PA_BmpFont2_Sizes_size
 .rodata        0x02093d4c      0x39c c:/ndsdev/devkitPro/PAlib/lib\libpa9.a(PA_BmpFont2_Tiles.bin.o)
                0x02093d4c                PA_BmpFont2_Tiles
                0x020940e4                PA_BmpFont2_Tiles_size
                0x020940e4                PA_BmpFont2_Tiles_end
 .rodata        0x020940e8      0x804 c:/ndsdev/devkitPro/PAlib/lib\libpa9.a(PA_BmpFont3_Map.bin.o)
                0x020940e8                PA_BmpFont3_Map
                0x020948e8                PA_BmpFont3_Map_end
                0x020948e8                PA_BmpFont3_Map_size
 .rodata        0x020948ec      0x104 c:/ndsdev/devkitPro/PAlib/lib\libpa9.a(PA_BmpFont3_Sizes.bin.o)
                0x020948ec                PA_BmpFont3_Sizes
                0x020949ec                PA_BmpFont3_Sizes_end
                0x020949ec                PA_BmpFont3_Sizes_size
 .rodata        0x020949f0      0x624 c:/ndsdev/devkitPro/PAlib/lib\libpa9.a(PA_BmpFont3_Tiles.bin.o)
                0x020949f0                PA_BmpFont3_Tiles
                0x02095010                PA_BmpFont3_Tiles_end
                0x02095010                PA_BmpFont3_Tiles_size
 .rodata        0x02095014      0x804 c:/ndsdev/devkitPro/PAlib/lib\libpa9.a(PA_BmpFont4_Map.bin.o)
                0x02095014                PA_BmpFont4_Map
                0x02095814                PA_BmpFont4_Map_size
                0x02095814                PA_BmpFont4_Map_end
 .rodata        0x02095818      0x104 c:/ndsdev/devkitPro/PAlib/lib\libpa9.a(PA_BmpFont4_Sizes.bin.o)
                0x02095818                PA_BmpFont4_Sizes
                0x02095918                PA_BmpFont4_Sizes_end
                0x02095918                PA_BmpFont4_Sizes_size
 .rodata        0x0209591c      0x834 c:/ndsdev/devkitPro/PAlib/lib\libpa9.a(PA_BmpFont4_Tiles.bin.o)
                0x0209591c                PA_BmpFont4_Tiles
                0x0209614c                PA_BmpFont4_Tiles_size
                0x0209614c                PA_BmpFont4_Tiles_end
 .rodata        0x02096150       0xf0 c:/ndsdev/devkitPro/PAlib/lib\libpa9.a(PA_Keyboard.o)
                0x02096150                PA_Keyboard
 .rodata        0x02096240     0x2000 c:/ndsdev/devkitPro/PAlib/lib\libpa9.a(keyboard.map.o)
                0x02096240                keyboard_Map
 .rodata        0x02098240       0x20 c:/ndsdev/devkitPro/PAlib/lib\libpa9.a(keyboard.pal.o)
                0x02098240                keyboard_Palette
 .rodata        0x02098260     0x28a0 c:/ndsdev/devkitPro/PAlib/lib\libpa9.a(keyboard.raw.o)
                0x02098260                keyboard_Tiles
 .rodata        0x0209ab00        0x4 c:/ndsdev/devkitpro/devkitarm/bin/../lib/gcc/arm-eabi/4.5.1/../../../../arm-eabi/lib/thumb\libg.a(lib_a-impure.o)
                0x0209ab00                _global_impure_ptr
 .rodata        0x0209ab04      0x128 c:/ndsdev/devkitpro/devkitarm/bin/../lib/gcc/arm-eabi/4.5.1/../../../../arm-eabi/lib/thumb\libg.a(lib_a-locale.o)
 .rodata        0x0209ac2c       0xa8 c:/ndsdev/devkitpro/devkitarm/bin/../lib/gcc/arm-eabi/4.5.1/../../../../arm-eabi/lib/thumb\libg.a(lib_a-mbtowc_r.o)
 .rodata        0x0209acd4       0x68 c:/ndsdev/devkitpro/devkitarm/bin/../lib/gcc/arm-eabi/4.5.1/../../../../arm-eabi/lib/thumb\libg.a(lib_a-mktm_r.o)
 .rodata        0x0209ad3c      0x104 c:/ndsdev/devkitpro/devkitarm/bin/../lib/gcc/arm-eabi/4.5.1/../../../../arm-eabi/lib/thumb\libg.a(lib_a-ctype_.o)
                0x0209ad3c                _ctype_
 .rodata        0x0209ae40       0x64 c:/ndsdev/devkitpro/devkitarm/bin/../lib/gcc/arm-eabi/4.5.1/../../../../arm-eabi/lib/thumb\libsysbase.a(iosupport.o)
                0x0209ae40                dotab_stdnull
 *all.rodata*(*)
 *(.roda)
 *(.rodata.*)
 .rodata.str1.4
                0x0209aea4       0x33 game.o
                                 0x34 (size before relaxing)
 *fill*         0x0209aed7        0x1 ff
 .rodata.str1.4
                0x0209aed8      0x18b c:/ndsdev/devkitPro/PAlib/lib\libpa9.a(PA_BgTiles.o)
                                0x190 (size before relaxing)
 *fill*         0x0209b063        0x1 ff
 .rodata.str1.4
                0x0209b064       0x26 c:/ndsdev/devkitPro/PAlib/lib\libpa9.a(PA_Error.o)
                                 0x28 (size before relaxing)
 *fill*         0x0209b08a        0x2 ff
 .rodata.str1.4
                0x0209b08c        0x2 c:/ndsdev/devkitPro/PAlib/lib\libpa9.a(PA_Inits.o)
                                  0x4 (size before relaxing)
 *fill*         0x0209b08e        0x2 ff
 .rodata.str1.4
                0x0209b090      0x128 c:/ndsdev/devkitPro/PAlib/lib\libpa9.a(PA_NewBg.o)
 .rodata.str1.4
                0x0209b1b8      0x234 c:/ndsdev/devkitPro/PAlib/lib\libpa9.a(PA_Sprite.o)
 .rodata.str1.4
                0x0209b3ec        0xa c:/ndsdev/devkitPro/PAlib/lib\libpa9.a(PA_Stuff.o)
                                  0xc (size before relaxing)
 .rodata.str1.4
                0x00000000        0x4 c:/ndsdev/devkitpro/devkitarm/bin/../lib/gcc/arm-eabi/4.5.1/../../../../arm-eabi/lib/thumb\libg.a(lib_a-impure.o)
 *fill*         0x0209b3f6        0x2 ff
 .rodata.str1.4
                0x0209b3f8       0xe0 c:/ndsdev/devkitpro/devkitarm/bin/../lib/gcc/arm-eabi/4.5.1/../../../../arm-eabi/lib/thumb\libg.a(lib_a-locale.o)
                                 0xf0 (size before relaxing)
 .rodata.str1.4
                0x0209b4d8        0x4 c:/ndsdev/devkitpro/devkitarm/bin/../lib/gcc/arm-eabi/4.5.1/../../../../arm-eabi/lib/thumb\libg.a(lib_a-tzvars.o)
 .rodata.str1.4
                0x0209b4dc        0x8 c:/ndsdev/devkitpro/devkitarm/bin/../lib/gcc/arm-eabi/4.5.1/../../../../arm-eabi/lib/thumb\libsysbase.a(iosupport.o)
 *(.gnu.linkonce.r*)
                0x0209b4e4                . = ALIGN (0x4)

.ARM.extab
 *(.ARM.extab* .gnu.linkonce.armextab.*)
                0x0209b4e4                __exidx_start = .

.ARM.exidx
 *(.ARM.exidx* .gnu.linkonce.armexidx.*)
                0x0209b4e4                __exidx_end = .
                0x0209b4e4                . = ALIGN (0x4)
                0x0209b4e4                PROVIDE (__preinit_array_start, .)

.preinit_array
 *(.preinit_array)
                0x0209b4e4                PROVIDE (__preinit_array_end, .)
                0x0209b4e4                PROVIDE (__init_array_start, .)

.init_array     0x0209b4e4        0x8
 *(SORT(.init_array.*))
 *(.init_array)
 .init_array    0x0209b4e4        0x4 c:/ndsdev/devkitpro/devkitarm/bin/../lib/gcc/arm-eabi/4.5.1/thumb/crtbegin.o
 .init_array    0x0209b4e8        0x4 game.o
                0x0209b4ec                PROVIDE (__init_array_end, .)
                0x0209b4ec                PROVIDE (__fini_array_start, .)

.fini_array     0x0209b4ec        0x4
 *(.fini_array)
 .fini_array    0x0209b4ec        0x4 c:/ndsdev/devkitpro/devkitarm/bin/../lib/gcc/arm-eabi/4.5.1/thumb/crtbegin.o
 *(SORT(.fini_array.*))
                0x0209b4f0                PROVIDE (__fini_array_end, .)

.ctors          0x0209b4f0        0x0
 *crtbegin.o(.ctors)
 *(EXCLUDE_FILE(*crtend.o) .ctors)
 *(SORT(.ctors.*))
 *(.ctors)
                0x0209b4f0                . = ALIGN (0x4)

.dtors          0x0209b4f0        0x0
 *crtbegin.o(.dtors)
 *(EXCLUDE_FILE(*crtend.o) .dtors)
 *(SORT(.dtors.*))
 *(.dtors)
                0x0209b4f0                . = ALIGN (0x4)

.eh_frame       0x0209b4f0        0x4
 *(.eh_frame)
 .eh_frame      0x0209b4f0        0x0 c:/ndsdev/devkitpro/devkitarm/bin/../lib/gcc/arm-eabi/4.5.1/thumb/crtbegin.o
 .eh_frame      0x0209b4f0        0x4 c:/ndsdev/devkitpro/devkitarm/bin/../lib/gcc/arm-eabi/4.5.1/thumb/crtend.o
                0x0209b4f4                . = ALIGN (0x4)

.gcc_except_table
                0x0209b4f4        0x0
 *(.gcc_except_table)
                0x0209b4f4                . = ALIGN (0x4)

.jcr            0x0209b4f4        0x4
 *(.jcr)
 .jcr           0x0209b4f4        0x0 c:/ndsdev/devkitpro/devkitarm/bin/../lib/gcc/arm-eabi/4.5.1/thumb/crtbegin.o
 .jcr           0x0209b4f4        0x4 c:/ndsdev/devkitpro/devkitarm/bin/../lib/gcc/arm-eabi/4.5.1/thumb/crtend.o

.got
 *(.got.plt)
 *(.got)
 *(.rel.got)

.ewram          0x0209b4f8        0x0
                0x0209b4f8                __ewram_start = ABSOLUTE (.)
 *(.ewram)
 *ewram.*(.text)
                0x0209b4f8                . = ALIGN (0x4)

.data           0x0209b4f8      0xd60
                0x0209b4f8                __data_start = ABSOLUTE (.)
 *(.data)
 .data          0x0209b4f8        0x0 c:/ndsdev/devkitpro/devkitarm/bin/../lib/gcc/arm-eabi/4.5.1/../../../../arm-eabi/lib/thumb/ds_arm9_crt0.o
 .data          0x0209b4f8        0x0 c:/ndsdev/devkitpro/devkitarm/bin/../lib/gcc/arm-eabi/4.5.1/thumb/crti.o
 .data          0x0209b4f8        0x4 c:/ndsdev/devkitpro/devkitarm/bin/../lib/gcc/arm-eabi/4.5.1/thumb/crtbegin.o
                0x0209b4f8                __dso_handle
 .data          0x0209b4fc        0x0 Town_Map.o
 .data          0x0209b4fc        0x0 Town_Pal.o
 .data          0x0209b4fc        0x0 Town_Tiles.o
 .data          0x0209b4fc        0x0 bg_main_down_Map.o
 .data          0x0209b4fc        0x0 bg_main_down_Pal.o
 .data          0x0209b4fc        0x0 bg_main_down_Tiles.o
 .data          0x0209b4fc        0x0 bg_main_up_Map.o
 .data          0x0209b4fc        0x0 bg_main_up_Pal.o
 .data          0x0209b4fc        0x0 bg_main_up_Tiles.o
 .data          0x0209b4fc        0x0 bg_menu_Map.o
 .data          0x0209b4fc        0x0 bg_menu_Pal.o
 .data          0x0209b4fc        0x0 bg_menu_Tiles.o
 .data          0x0209b4fc        0x0 bg_stage1_init_Map.o
 .data          0x0209b4fc        0x0 bg_stage1_init_Pal.o
 .data          0x0209b4fc        0x0 bg_stage1_init_Tiles.o
 .data          0x0209b4fc        0x0 bg_stage2_init_Map.o
 .data          0x0209b4fc        0x0 bg_stage2_init_Pal.o
 .data          0x0209b4fc        0x0 bg_stage2_init_Tiles.o
 .data          0x0209b4fc        0x0 bg_stage3_init_Map.o
 .data          0x0209b4fc        0x0 bg_stage3_init_Pal.o
 .data          0x0209b4fc        0x0 bg_stage3_init_Tiles.o
 .data          0x0209b4fc        0x0 gameover_Map.o
 .data          0x0209b4fc        0x0 gameover_Pal.o
 .data          0x0209b4fc        0x0 gameover_Tiles.o
 .data          0x0209b4fc        0x0 hpminus_Pal.o
 .data          0x0209b4fc        0x0 hpminus_Sprite.o
 .data          0x0209b4fc        0x0 monster_Pal.o
 .data          0x0209b4fc        0x0 monster_Sprite.o
 .data          0x0209b4fc        0x0 princess_Pal.o
 .data          0x0209b4fc        0x0 princess_Sprite.o
 .data          0x0209b4fc        0x0 som_Pal.o
 .data          0x0209b4fc        0x0 som_Sprite.o
 .data          0x0209b4fc        0x0 sprite1_Pal.o
 .data          0x0209b4fc        0x0 sprite1_Sprite.o
 .data          0x0209b4fc        0x0 stage1_Map.o
 .data          0x0209b4fc        0x0 stage1_Pal.o
 .data          0x0209b4fc        0x0 stage1_Tiles.o
 .data          0x0209b4fc        0x0 stage2_Map.o
 .data          0x0209b4fc        0x0 stage2_Pal.o
 .data          0x0209b4fc        0x0 stage2_Tiles.o
 .data          0x0209b4fc        0x0 water_Pal.o
 .data          0x0209b4fc        0x0 water_Sprite.o
 .data          0x0209b4fc        0x0 Town.o
 .data          0x0209b4fc        0x0 bg_main_down.o
 .data          0x0209b4fc        0x0 bg_main_up.o
 .data          0x0209b4fc        0x0 bg_menu.o
 .data          0x0209b4fc        0x0 bg_stage1_init.o
 .data          0x0209b4fc        0x0 bg_stage2_init.o
 .data          0x0209b4fc        0x0 bg_stage3_init.o
 .data          0x0209b4fc        0x0 gameover.o
 .data          0x0209b4fc        0x0 stage1.o
 .data          0x0209b4fc        0x0 stage2.o
 .data          0x0209b4fc        0x0 crystal.o
 .data          0x0209b4fc        0x0 crystal_Ball.o
 .data          0x0209b4fc        0x0 cs_api.o
 .data          0x0209b4fc        0x8 game.o
                0x0209b4fc                x
                0x0209b500                y
 .data          0x0209b504        0x0 hero.o
 .data          0x0209b504        0x0 main.o
 .data          0x0209b504        0x0 menu.o
 .data          0x0209b504        0x0 monster.o
 .data          0x0209b504        0x0 princess.o
 .data          0x0209b504        0x0 water.o
 .data          0x0209b504        0x0 c:/ndsdev/devkitPro/PAlib/lib\libpa9.a(PA.o)
 .data          0x0209b504        0x0 c:/ndsdev/devkitPro/PAlib/lib\libpa9.a(PA_BgEasy.o)
 .data          0x0209b504        0x0 c:/ndsdev/devkitPro/PAlib/lib\libpa9.a(PA_BgLargeMap.o)
 .data          0x0209b504       0x10 c:/ndsdev/devkitPro/PAlib/lib\libpa9.a(PA_BgTiles.o)
                0x0209b504                charsetstart
                0x0209b508                bg_place
                0x0209b50c                bg_sizes
 .data          0x0209b514        0x0 c:/ndsdev/devkitPro/PAlib/lib\libpa9.a(PA_Error.o)
 .data          0x0209b514        0x0 c:/ndsdev/devkitPro/PAlib/lib\libpa9.a(PA_Inits.o)
 .data          0x0209b514       0x14 c:/ndsdev/devkitPro/PAlib/lib\libpa9.a(PA_Interrupt.o)
                0x0209b514                SpriteVBL
                0x0209b518                MotionVBL
                0x0209b51c                GHPadVBL
                0x0209b520                PaddleVBL
                0x0209b524                CustomVBL
 .data          0x0209b528        0x0 c:/ndsdev/devkitPro/PAlib/lib\libpa9.a(PA_Keys.o)
 .data          0x0209b528        0x4 c:/ndsdev/devkitPro/PAlib/lib\libpa9.a(PA_Math.o)
                0x0209b528                RandomValue
 .data          0x0209b52c        0x0 c:/ndsdev/devkitPro/PAlib/lib\libpa9.a(PA_NewBg.o)
 .data          0x0209b52c        0x0 c:/ndsdev/devkitPro/PAlib/lib\libpa9.a(PA_Palette.o)
 .data          0x0209b52c        0x0 c:/ndsdev/devkitPro/PAlib/lib\libpa9.a(PA_RTC.o)
 .data          0x0209b52c      0x204 c:/ndsdev/devkitPro/PAlib/lib\libpa9.a(PA_Reco.o)
                0x0209b52c                PA_UseGraffiti
                0x0209b530                PA_Graffiti
 .data          0x0209b730        0x4 c:/ndsdev/devkitPro/PAlib/lib\libpa9.a(PA_Sprite.o)
                0x0209b730                VBLSpriteAnims
 .data          0x0209b734        0x0 c:/ndsdev/devkitPro/PAlib/lib\libpa9.a(PA_SpriteAnim.o)
 .data          0x0209b734        0x0 c:/ndsdev/devkitPro/PAlib/lib\libpa9.a(PA_Stuff.o)
 .data          0x0209b734        0x0 c:/ndsdev/devkitPro/PAlib/lib\libpa9.a(PA_Text.o)
 .data          0x0209b734       0x3c c:/ndsdev/devkitPro/PAlib/lib\libpa9.a(PA_Text8bit.o)
                0x0209b734                bit8_tiles
                0x0209b75c                letters
 .data          0x0209b770       0x7c c:/ndsdev/devkitPro/PAlib/lib\libpa9.a(PA_TextBits.o)
                0x0209b770                textinfo
                0x0209b774                pa_bittextdefaultsize
                0x0209b79c                bittext_maps
                0x0209b7c4                bittext_tiles_blank
 .data          0x0209b7ec        0x0 c:/ndsdev/devkitPro/PAlib/lib\libpa9.a(PA_TiledFont.o)
 .data          0x0209b7ec        0x0 c:/ndsdev/devkitPro/PAlib/lib\libpa9.a(PA_BmpFont0.o)
 .data          0x0209b7ec        0x0 c:/ndsdev/devkitPro/PAlib/lib\libpa9.a(PA_BmpFont1.o)
 .data          0x0209b7ec        0x0 c:/ndsdev/devkitPro/PAlib/lib\libpa9.a(PA_BmpFont2.o)
 .data          0x0209b7ec        0x0 c:/ndsdev/devkitPro/PAlib/lib\libpa9.a(PA_BmpFont3.o)
 .data          0x0209b7ec        0x0 c:/ndsdev/devkitPro/PAlib/lib\libpa9.a(PA_BmpFont4.o)
 .data          0x0209b7ec        0x0 c:/ndsdev/devkitPro/PAlib/lib\libpa9.a(PA_TiledFont_Map.bin.o)
 .data          0x0209b7ec        0x0 c:/ndsdev/devkitPro/PAlib/lib\libpa9.a(PA_TiledFont_Pal.bin.o)
 .data          0x0209b7ec        0x0 c:/ndsdev/devkitPro/PAlib/lib\libpa9.a(PA_TiledFont_Tiles.bin.o)
 .data          0x0209b7ec        0x0 c:/ndsdev/devkitPro/PAlib/lib\libpa9.a(PA_BmpFont0_Map.bin.o)
 .data          0x0209b7ec        0x0 c:/ndsdev/devkitPro/PAlib/lib\libpa9.a(PA_BmpFont0_Sizes.bin.o)
 .data          0x0209b7ec        0x0 c:/ndsdev/devkitPro/PAlib/lib\libpa9.a(PA_BmpFont0_Tiles.bin.o)
 .data          0x0209b7ec        0x0 c:/ndsdev/devkitPro/PAlib/lib\libpa9.a(PA_BmpFont1_Map.bin.o)
 .data          0x0209b7ec        0x0 c:/ndsdev/devkitPro/PAlib/lib\libpa9.a(PA_BmpFont1_Sizes.bin.o)
 .data          0x0209b7ec        0x0 c:/ndsdev/devkitPro/PAlib/lib\libpa9.a(PA_BmpFont1_Tiles.bin.o)
 .data          0x0209b7ec        0x0 c:/ndsdev/devkitPro/PAlib/lib\libpa9.a(PA_BmpFont2_Map.bin.o)
 .data          0x0209b7ec        0x0 c:/ndsdev/devkitPro/PAlib/lib\libpa9.a(PA_BmpFont2_Sizes.bin.o)
 .data          0x0209b7ec        0x0 c:/ndsdev/devkitPro/PAlib/lib\libpa9.a(PA_BmpFont2_Tiles.bin.o)
 .data          0x0209b7ec        0x0 c:/ndsdev/devkitPro/PAlib/lib\libpa9.a(PA_BmpFont3_Map.bin.o)
 .data          0x0209b7ec        0x0 c:/ndsdev/devkitPro/PAlib/lib\libpa9.a(PA_BmpFont3_Sizes.bin.o)
 .data          0x0209b7ec        0x0 c:/ndsdev/devkitPro/PAlib/lib\libpa9.a(PA_BmpFont3_Tiles.bin.o)
 .data          0x0209b7ec        0x0 c:/ndsdev/devkitPro/PAlib/lib\libpa9.a(PA_BmpFont4_Map.bin.o)
 .data          0x0209b7ec        0x0 c:/ndsdev/devkitPro/PAlib/lib\libpa9.a(PA_BmpFont4_Sizes.bin.o)
 .data          0x0209b7ec        0x0 c:/ndsdev/devkitPro/PAlib/lib\libpa9.a(PA_BmpFont4_Tiles.bin.o)
 .data          0x0209b7ec       0x28 c:/ndsdev/devkitPro/PAlib/lib\libpa9.a(PA_16c.o)
                0x0209b7ec                c16_tiles
 .data          0x0209b814        0xc c:/ndsdev/devkitPro/PAlib/lib\libpa9.a(PA_BgRot.o)
                0x0209b814                rotbg_place
                0x0209b818                rotbg_sizes
 .data          0x0209b820        0x0 c:/ndsdev/devkitPro/PAlib/lib\libpa9.a(PA_Draw.o)
 .data          0x0209b820        0x0 c:/ndsdev/devkitPro/PAlib/lib\libpa9.a(PA_Fifo.o)
 .data          0x0209b820        0x0 c:/ndsdev/devkitPro/PAlib/lib\libpa9.a(PA_Keyboard.o)
 .data          0x0209b820        0x0 c:/ndsdev/devkitPro/PAlib/lib\libpa9.a(PA_PaletteEx.o)
 .data          0x0209b820        0x0 c:/ndsdev/devkitPro/PAlib/lib\libpa9.a(keyboard.map.o)
 .data          0x0209b820        0x0 c:/ndsdev/devkitPro/PAlib/lib\libpa9.a(keyboard.pal.o)
 .data          0x0209b820        0x0 c:/ndsdev/devkitPro/PAlib/lib\libpa9.a(keyboard.raw.o)
 .data          0x0209b820        0x3 c:/ndsdev/devkitPro/libnds/lib\libnds9.a(keys.o)
 .data          0x0209b823        0x0 c:/ndsdev/devkitPro/libnds/lib\libnds9.a(system.o)
 .data          0x0209b823        0x0 c:/ndsdev/devkitPro/libnds/lib\libnds9.a(touch.o)
 .data          0x0209b823        0x0 c:/ndsdev/devkitPro/libnds/lib\libnds9.a(video.o)
 .data          0x0209b823        0x0 c:/ndsdev/devkitPro/libnds/lib\libnds9.a(initSystem.o)
 *fill*         0x0209b823        0x1 ff
 .data          0x0209b824       0x10 c:/ndsdev/devkitPro/libnds/lib\libnds9.a(fifosystem.o)
                0x0209b824                fifo_freewords
                0x0209b828                fifo_buffer_free
                0x0209b82c                fifo_send_queue
                0x0209b830                fifo_receive_queue
 .data          0x0209b834        0x0 c:/ndsdev/devkitPro/libnds/lib\libnds9.a(interrupts.o)
 .data          0x0209b834        0x0 c:/ndsdev/devkitPro/libnds/lib\libnds9.a(libnds_exit.o)
 .data          0x0209b834        0x0 c:/ndsdev/devkitPro/libnds/lib\libnds9.a(dcache.o)
 .data          0x0209b834        0x0 c:/ndsdev/devkitPro/libnds/lib\libnds9.a(mpu_setup.o)
 .data          0x0209b834        0x0 c:/ndsdev/devkitPro/libnds/lib\libnds9.a(biosCalls.o)
 .data          0x0209b834        0x0 c:/ndsdev/devkitPro/libnds/lib\libnds9.a(interruptDispatcher.o)
 .data          0x0209b834        0x0 c:/ndsdev/devkitPro/libnds/lib\libnds9.a(swiSoftReset.o)
 .data          0x0209b834        0x0 c:/ndsdev/devkitpro/devkitarm/bin/../lib/gcc/arm-eabi/4.5.1/thumb\libgcc.a(_udivsi3.o)
 .data          0x0209b834        0x0 c:/ndsdev/devkitpro/devkitarm/bin/../lib/gcc/arm-eabi/4.5.1/thumb\libgcc.a(_divsi3.o)
 .data          0x0209b834        0x0 c:/ndsdev/devkitpro/devkitarm/bin/../lib/gcc/arm-eabi/4.5.1/thumb\libgcc.a(_dvmd_tls.o)
 .data          0x0209b834        0x0 c:/ndsdev/devkitpro/devkitarm/bin/../lib/gcc/arm-eabi/4.5.1/thumb\libgcc.a(_arm_addsubdf3.o)
 .data          0x0209b834        0x0 c:/ndsdev/devkitpro/devkitarm/bin/../lib/gcc/arm-eabi/4.5.1/thumb\libgcc.a(_arm_muldivdf3.o)
 .data          0x0209b834        0x0 c:/ndsdev/devkitpro/devkitarm/bin/../lib/gcc/arm-eabi/4.5.1/thumb\libgcc.a(_arm_cmpdf2.o)
 .data          0x0209b834        0x0 c:/ndsdev/devkitpro/devkitarm/bin/../lib/gcc/arm-eabi/4.5.1/thumb\libgcc.a(_arm_fixdfsi.o)
 .data          0x0209b834        0x0 c:/ndsdev/devkitpro/devkitarm/bin/../lib/gcc/arm-eabi/4.5.1/thumb\libgcc.a(_muldi3.o)
 .data          0x0209b834        0x0 c:/ndsdev/devkitpro/devkitarm/bin/../lib/gcc/arm-eabi/4.5.1/../../../../arm-eabi/lib/thumb\libg.a(lib_a-gmtime.o)
 .data          0x0209b834        0x0 c:/ndsdev/devkitpro/devkitarm/bin/../lib/gcc/arm-eabi/4.5.1/../../../../arm-eabi/lib/thumb\libg.a(lib_a-gmtime_r.o)
 *fill*         0x0209b834        0x4 ff
 .data          0x0209b838      0x430 c:/ndsdev/devkitpro/devkitarm/bin/../lib/gcc/arm-eabi/4.5.1/../../../../arm-eabi/lib/thumb\libg.a(lib_a-impure.o)
                0x0209b838                _impure_ptr
 .data          0x0209bc68        0x0 c:/ndsdev/devkitpro/devkitarm/bin/../lib/gcc/arm-eabi/4.5.1/../../../../arm-eabi/lib/thumb\libg.a(lib_a-init.o)
 .data          0x0209bc68      0x144 c:/ndsdev/devkitpro/devkitarm/bin/../lib/gcc/arm-eabi/4.5.1/../../../../arm-eabi/lib/thumb\libg.a(lib_a-locale.o)
                0x0209bc68                __default_locale
                0x0209bca8                __mb_cur_max
 .data          0x0209bdac        0x0 c:/ndsdev/devkitpro/devkitarm/bin/../lib/gcc/arm-eabi/4.5.1/../../../../arm-eabi/lib/thumb\libg.a(lib_a-malloc.o)
 .data          0x0209bdac      0x410 c:/ndsdev/devkitpro/devkitarm/bin/../lib/gcc/arm-eabi/4.5.1/../../../../arm-eabi/lib/thumb\libg.a(lib_a-mallocr.o)
                0x0209bdac                __malloc_av_
                0x0209c1b4                __malloc_sbrk_base
                0x0209c1b8                __malloc_trim_threshold
 .data          0x0209c1bc        0x4 c:/ndsdev/devkitpro/devkitarm/bin/../lib/gcc/arm-eabi/4.5.1/../../../../arm-eabi/lib/thumb\libg.a(lib_a-mbtowc_r.o)
                0x0209c1bc                __mbtowc
 .data          0x0209c1c0        0x0 c:/ndsdev/devkitpro/devkitarm/bin/../lib/gcc/arm-eabi/4.5.1/../../../../arm-eabi/lib/thumb\libg.a(lib_a-memcpy.o)
 .data          0x0209c1c0        0x0 c:/ndsdev/devkitpro/devkitarm/bin/../lib/gcc/arm-eabi/4.5.1/../../../../arm-eabi/lib/thumb\libg.a(lib_a-mktm_r.o)
 .data          0x0209c1c0        0x0 c:/ndsdev/devkitpro/devkitarm/bin/../lib/gcc/arm-eabi/4.5.1/../../../../arm-eabi/lib/thumb\libg.a(lib_a-mlock.o)
 .data          0x0209c1c0        0x0 c:/ndsdev/devkitpro/devkitarm/bin/../lib/gcc/arm-eabi/4.5.1/../../../../arm-eabi/lib/thumb\libg.a(lib_a-strcasecmp.o)
 .data          0x0209c1c0        0x0 c:/ndsdev/devkitpro/devkitarm/bin/../lib/gcc/arm-eabi/4.5.1/../../../../arm-eabi/lib/thumb\libg.a(lib_a-strcat.o)
 .data          0x0209c1c0        0x0 c:/ndsdev/devkitpro/devkitarm/bin/../lib/gcc/arm-eabi/4.5.1/../../../../arm-eabi/lib/thumb\libg.a(lib_a-strchr.o)
 .data          0x0209c1c0        0x0 c:/ndsdev/devkitpro/devkitarm/bin/../lib/gcc/arm-eabi/4.5.1/../../../../arm-eabi/lib/thumb\libg.a(lib_a-strcmp.o)
 .data          0x0209c1c0        0x0 c:/ndsdev/devkitpro/devkitarm/bin/../lib/gcc/arm-eabi/4.5.1/../../../../arm-eabi/lib/thumb\libg.a(lib_a-strcpy.o)
 .data          0x0209c1c0        0x0 c:/ndsdev/devkitpro/devkitarm/bin/../lib/gcc/arm-eabi/4.5.1/../../../../arm-eabi/lib/thumb\libg.a(lib_a-strlcpy.o)
 .data          0x0209c1c0        0x0 c:/ndsdev/devkitpro/devkitarm/bin/../lib/gcc/arm-eabi/4.5.1/../../../../arm-eabi/lib/thumb\libg.a(lib_a-strlen.o)
 .data          0x0209c1c0        0x0 c:/ndsdev/devkitpro/devkitarm/bin/../lib/gcc/arm-eabi/4.5.1/../../../../arm-eabi/lib/thumb\libg.a(lib_a-strncasecmp.o)
 .data          0x0209c1c0        0x0 c:/ndsdev/devkitpro/devkitarm/bin/../lib/gcc/arm-eabi/4.5.1/../../../../arm-eabi/lib/thumb\libg.a(lib_a-strncmp.o)
 .data          0x0209c1c0        0x0 c:/ndsdev/devkitpro/devkitarm/bin/../lib/gcc/arm-eabi/4.5.1/../../../../arm-eabi/lib/thumb\libg.a(lib_a-strncpy.o)
 .data          0x0209c1c0        0x0 c:/ndsdev/devkitpro/devkitarm/bin/../lib/gcc/arm-eabi/4.5.1/../../../../arm-eabi/lib/thumb\libg.a(lib_a-strtol.o)
 .data          0x0209c1c0        0x0 c:/ndsdev/devkitpro/devkitarm/bin/../lib/gcc/arm-eabi/4.5.1/../../../../arm-eabi/lib/thumb\libg.a(lib_a-sysstat.o)
 .data          0x0209c1c0        0x0 c:/ndsdev/devkitpro/devkitarm/bin/../lib/gcc/arm-eabi/4.5.1/../../../../arm-eabi/lib/thumb\libg.a(lib_a-time.o)
 .data          0x0209c1c0        0x0 c:/ndsdev/devkitpro/devkitarm/bin/../lib/gcc/arm-eabi/4.5.1/../../../../arm-eabi/lib/thumb\libg.a(lib_a-tzlock.o)
 .data          0x0209c1c0        0x8 c:/ndsdev/devkitpro/devkitarm/bin/../lib/gcc/arm-eabi/4.5.1/../../../../arm-eabi/lib/thumb\libg.a(lib_a-tzvars.o)
                0x0209c1c0                _tzname
 .data          0x0209c1c8        0x4 c:/ndsdev/devkitpro/devkitarm/bin/../lib/gcc/arm-eabi/4.5.1/../../../../arm-eabi/lib/thumb\libg.a(lib_a-wctomb_r.o)
                0x0209c1c8                __wctomb
 .data          0x0209c1cc        0x4 c:/ndsdev/devkitpro/devkitarm/bin/../lib/gcc/arm-eabi/4.5.1/../../../../arm-eabi/lib/thumb\libg.a(lib_a-ctype_.o)
                0x0209c1cc                __ctype_ptr__
 .data          0x0209c1d0        0x0 c:/ndsdev/devkitpro/devkitarm/bin/../lib/gcc/arm-eabi/4.5.1/../../../../arm-eabi/lib/thumb\libg.a(lib_a-freer.o)
 .data          0x0209c1d0        0x0 c:/ndsdev/devkitpro/devkitarm/bin/../lib/gcc/arm-eabi/4.5.1/../../../../arm-eabi/lib/thumb\libg.a(lib_a-getenv_r.o)
 .data          0x0209c1d0       0x40 c:/ndsdev/devkitpro/devkitarm/bin/../lib/gcc/arm-eabi/4.5.1/../../../../arm-eabi/lib/thumb\libg.a(lib_a-gettzinfo.o)
 .data          0x0209c210        0x4 c:/ndsdev/devkitpro/devkitarm/bin/../lib/gcc/arm-eabi/4.5.1/../../../../arm-eabi/lib/thumb\libg.a(lib_a-environ.o)
                0x0209c210                environ
 .data          0x0209c214        0x0 c:/ndsdev/devkitpro/devkitarm/bin/../lib/gcc/arm-eabi/4.5.1/../../../../arm-eabi/lib/thumb\libg.a(lib_a-envlock.o)
 .data          0x0209c214        0x0 c:/ndsdev/devkitpro/devkitarm/bin/../lib/gcc/arm-eabi/4.5.1/../../../../arm-eabi/lib/thumb\libsysbase.a(sbrk.o)
 .data          0x0209c214        0x0 c:/ndsdev/devkitpro/devkitarm/bin/../lib/gcc/arm-eabi/4.5.1/../../../../arm-eabi/lib/thumb\libsysbase.a(stat.o)
 .data          0x0209c214        0x0 c:/ndsdev/devkitpro/devkitarm/bin/../lib/gcc/arm-eabi/4.5.1/../../../../arm-eabi/lib/thumb\libsysbase.a(times.o)
 .data          0x0209c214        0x0 c:/ndsdev/devkitpro/devkitarm/bin/../lib/gcc/arm-eabi/4.5.1/../../../../arm-eabi/lib/thumb\libsysbase.a(malloc_vars.o)
 .data          0x0209c214        0x0 c:/ndsdev/devkitpro/devkitarm/bin/../lib/gcc/arm-eabi/4.5.1/../../../../arm-eabi/lib/thumb\libsysbase.a(build_argv.o)
 .data          0x0209c214        0x0 c:/ndsdev/devkitpro/devkitarm/bin/../lib/gcc/arm-eabi/4.5.1/../../../../arm-eabi/lib/thumb\libsysbase.a(syscall_support.o)
 .data          0x0209c214        0x0 c:/ndsdev/devkitpro/devkitarm/bin/../lib/gcc/arm-eabi/4.5.1/../../../../arm-eabi/lib/thumb\libsysbase.a(dirent.o)
 .data          0x0209c214       0x44 c:/ndsdev/devkitpro/devkitarm/bin/../lib/gcc/arm-eabi/4.5.1/../../../../arm-eabi/lib/thumb\libsysbase.a(iosupport.o)
                0x0209c218                devoptab_list
 .data          0x0209c258        0x0 c:/ndsdev/devkitpro/devkitarm/bin/../lib/gcc/arm-eabi/4.5.1/../../../../arm-eabi/lib/thumb\libsysbase.a(dir.o)
 .data          0x0209c258        0x0 c:/ndsdev/devkitpro/devkitarm/bin/../lib/gcc/arm-eabi/4.5.1/../../../../arm-eabi/lib/thumb\libg.a(lib_a-errno.o)
 .data          0x0209c258        0x0 c:/ndsdev/devkitpro/devkitarm/bin/../lib/gcc/arm-eabi/4.5.1/../../../../arm-eabi/lib/thumb\libg.a(lib_a-strnlen.o)
 .data          0x0209c258        0x0 c:/ndsdev/devkitpro/devkitarm/bin/../lib/gcc/arm-eabi/4.5.1/thumb/crtend.o
 .data          0x0209c258        0x0 c:/ndsdev/devkitpro/devkitarm/bin/../lib/gcc/arm-eabi/4.5.1/thumb/crtn.o
 *(.data.*)
 *(.gnu.linkonce.d*)
                0x0209c258                . = ALIGN (0x4)
                0x0209c258                __data_end = ABSOLUTE (.)
                0x0209c258                __dtcm_lma = .
                0x0209c258                __bss_vma = .

.dtcm           0x0b000000        0x0 load address 0x0209c258
 *(.dtcm)
 *(.dtcm.*)
                0x0b000000                . = ALIGN (0x4)
                0x0b000000                __dtcm_end = ABSOLUTE (.)
                0x0209c258                __itcm_lma = (__dtcm_lma + SIZEOF (.dtcm))

.itcm           0x01000100      0x194 load address 0x0209c258
 *(.itcm)
 .itcm          0x01000100       0xc8 c:/ndsdev/devkitPro/libnds/lib\libnds9.a(interrupts.o)
                0x01000100                irqTable
 .itcm          0x010001c8       0xcc c:/ndsdev/devkitPro/libnds/lib\libnds9.a(interruptDispatcher.o)
                0x010001c8                IntrMain
 *itcm.*(.text)
                0x01000294                . = ALIGN (0x4)
                0x01000294                __itcm_end = ABSOLUTE (.)
                0x0209c3ec                __vectors_lma = (__itcm_lma + SIZEOF (.itcm))

.vectors        0x01000000        0x0 load address 0x0209c3ec
 *(.vectors)
 *vectors.*(.text)
                0x01000000                . = ALIGN (0x4)
                0x01000000                __vectors_end = ABSOLUTE (.)

.sbss           0x0b000000        0x0
                0x0b000000                __sbss_start = ABSOLUTE (.)
                0x0b000000                __sbss_start__ = ABSOLUTE (.)
 *(.sbss)
                0x0b000000                . = ALIGN (0x4)
                0x0b000000                __sbss_end = ABSOLUTE (.)

.bss            0x0209c258    0x172d4
                0x0209c258                __bss_start = ABSOLUTE (.)
                0x0209c258                __bss_start__ = ABSOLUTE (.)
 *(.dynbss)
 *(.gnu.linkonce.b*)
 *(.bss*)
 .bss           0x0209c258        0x0 c:/ndsdev/devkitpro/devkitarm/bin/../lib/gcc/arm-eabi/4.5.1/../../../../arm-eabi/lib/thumb/ds_arm9_crt0.o
 .bss           0x0209c258        0x0 c:/ndsdev/devkitpro/devkitarm/bin/../lib/gcc/arm-eabi/4.5.1/thumb/crti.o
 .bss           0x0209c258       0x1c c:/ndsdev/devkitpro/devkitarm/bin/../lib/gcc/arm-eabi/4.5.1/thumb/crtbegin.o
 .bss           0x0209c274        0x0 Town_Map.o
 .bss           0x0209c274        0x0 Town_Pal.o
 .bss           0x0209c274        0x0 Town_Tiles.o
 .bss           0x0209c274        0x0 bg_main_down_Map.o
 .bss           0x0209c274        0x0 bg_main_down_Pal.o
 .bss           0x0209c274        0x0 bg_main_down_Tiles.o
 .bss           0x0209c274        0x0 bg_main_up_Map.o
 .bss           0x0209c274        0x0 bg_main_up_Pal.o
 .bss           0x0209c274        0x0 bg_main_up_Tiles.o
 .bss           0x0209c274        0x0 bg_menu_Map.o
 .bss           0x0209c274        0x0 bg_menu_Pal.o
 .bss           0x0209c274        0x0 bg_menu_Tiles.o
 .bss           0x0209c274        0x0 bg_stage1_init_Map.o
 .bss           0x0209c274        0x0 bg_stage1_init_Pal.o
 .bss           0x0209c274        0x0 bg_stage1_init_Tiles.o
 .bss           0x0209c274        0x0 bg_stage2_init_Map.o
 .bss           0x0209c274        0x0 bg_stage2_init_Pal.o
 .bss           0x0209c274        0x0 bg_stage2_init_Tiles.o
 .bss           0x0209c274        0x0 bg_stage3_init_Map.o
 .bss           0x0209c274        0x0 bg_stage3_init_Pal.o
 .bss           0x0209c274        0x0 bg_stage3_init_Tiles.o
 .bss           0x0209c274        0x0 gameover_Map.o
 .bss           0x0209c274        0x0 gameover_Pal.o
 .bss           0x0209c274        0x0 gameover_Tiles.o
 .bss           0x0209c274        0x0 hpminus_Pal.o
 .bss           0x0209c274        0x0 hpminus_Sprite.o
 .bss           0x0209c274        0x0 monster_Pal.o
 .bss           0x0209c274        0x0 monster_Sprite.o
 .bss           0x0209c274        0x0 princess_Pal.o
 .bss           0x0209c274        0x0 princess_Sprite.o
 .bss           0x0209c274        0x0 som_Pal.o
 .bss           0x0209c274        0x0 som_Sprite.o
 .bss           0x0209c274        0x0 sprite1_Pal.o
 .bss           0x0209c274        0x0 sprite1_Sprite.o
 .bss           0x0209c274        0x0 stage1_Map.o
 .bss           0x0209c274        0x0 stage1_Pal.o
 .bss           0x0209c274        0x0 stage1_Tiles.o
 .bss           0x0209c274        0x0 stage2_Map.o
 .bss           0x0209c274        0x0 stage2_Pal.o
 .bss           0x0209c274        0x0 stage2_Tiles.o
 .bss           0x0209c274        0x0 water_Pal.o
 .bss           0x0209c274        0x0 water_Sprite.o
 .bss           0x0209c274        0x0 Town.o
 .bss           0x0209c274        0x0 bg_main_down.o
 .bss           0x0209c274        0x0 bg_main_up.o
 .bss           0x0209c274        0x0 bg_menu.o
 .bss           0x0209c274        0x0 bg_stage1_init.o
 .bss           0x0209c274        0x0 bg_stage2_init.o
 .bss           0x0209c274        0x0 bg_stage3_init.o
 .bss           0x0209c274        0x0 gameover.o
 .bss           0x0209c274        0x0 stage1.o
 .bss           0x0209c274        0x0 stage2.o
 .bss           0x0209c274        0x0 crystal.o
 .bss           0x0209c274        0x0 crystal_Ball.o
 .bss           0x0209c274        0x4 cs_api.o
 .bss           0x0209c278       0x1c game.o
                0x0209c288                move_cnt
                0x0209c28c                water_cnt
                0x0209c290                coordi
 .bss           0x0209c294        0x0 hero.o
 .bss           0x0209c294        0x0 main.o
 .bss           0x0209c294        0x0 menu.o
 .bss           0x0209c294        0x0 monster.o
 .bss           0x0209c294        0x0 princess.o
 .bss           0x0209c294        0x0 water.o
 .bss           0x0209c294        0x4 c:/ndsdev/devkitPro/PAlib/lib\libpa9.a(PA.o)
                0x0209c294                pa_giftotexcolor
                0x0209c296                PA_Screen
                0x0209c297                PA_MoveSpriteType
 .bss           0x0209c298        0x0 c:/ndsdev/devkitPro/PAlib/lib\libpa9.a(PA_BgEasy.o)
 .bss           0x0209c298        0x0 c:/ndsdev/devkitPro/PAlib/lib\libpa9.a(PA_BgLargeMap.o)
 .bss           0x0209c298        0x0 c:/ndsdev/devkitPro/PAlib/lib\libpa9.a(PA_BgTiles.o)
 .bss           0x0209c298        0x0 c:/ndsdev/devkitPro/PAlib/lib\libpa9.a(PA_Error.o)
 .bss           0x0209c298        0x0 c:/ndsdev/devkitPro/PAlib/lib\libpa9.a(PA_Inits.o)
 .bss           0x0209c298        0x0 c:/ndsdev/devkitPro/PAlib/lib\libpa9.a(PA_Interrupt.o)
 .bss           0x0209c298        0x0 c:/ndsdev/devkitPro/PAlib/lib\libpa9.a(PA_Keys.o)
 .bss           0x0209c298        0x0 c:/ndsdev/devkitPro/PAlib/lib\libpa9.a(PA_Math.o)
 .bss           0x0209c298        0x0 c:/ndsdev/devkitPro/PAlib/lib\libpa9.a(PA_NewBg.o)
 .bss           0x0209c298        0x0 c:/ndsdev/devkitPro/PAlib/lib\libpa9.a(PA_Palette.o)
 .bss           0x0209c298        0x0 c:/ndsdev/devkitPro/PAlib/lib\libpa9.a(PA_RTC.o)
 .bss           0x0209c298        0x1 c:/ndsdev/devkitPro/PAlib/lib\libpa9.a(PA_Reco.o)
                0x0209c298                PA_CustomReco
 *fill*         0x0209c299        0x3 00
 .bss           0x0209c29c        0xc c:/ndsdev/devkitPro/PAlib/lib\libpa9.a(PA_Sprite.o)
                0x0209c29c                PA_SpriteExtPrio
                0x0209c2a0                FirstGfx
                0x0209c2a4                nspriteanims
 .bss           0x0209c2a8        0x0 c:/ndsdev/devkitPro/PAlib/lib\libpa9.a(PA_SpriteAnim.o)
 .bss           0x0209c2a8        0x0 c:/ndsdev/devkitPro/PAlib/lib\libpa9.a(PA_Stuff.o)
 .bss           0x0209c2a8        0x8 c:/ndsdev/devkitPro/PAlib/lib\libpa9.a(PA_Text.o)
                0x0209c2a8                PAtext_pal
                0x0209c2ac                PA_font
 .bss           0x0209c2b0        0x0 c:/ndsdev/devkitPro/PAlib/lib\libpa9.a(PA_Text8bit.o)
 .bss           0x0209c2b0        0x0 c:/ndsdev/devkitPro/PAlib/lib\libpa9.a(PA_TextBits.o)
 .bss           0x0209c2b0        0x0 c:/ndsdev/devkitPro/PAlib/lib\libpa9.a(PA_TiledFont.o)
 .bss           0x0209c2b0        0x0 c:/ndsdev/devkitPro/PAlib/lib\libpa9.a(PA_BmpFont0.o)
 .bss           0x0209c2b0        0x0 c:/ndsdev/devkitPro/PAlib/lib\libpa9.a(PA_BmpFont1.o)
 .bss           0x0209c2b0        0x0 c:/ndsdev/devkitPro/PAlib/lib\libpa9.a(PA_BmpFont2.o)
 .bss           0x0209c2b0        0x0 c:/ndsdev/devkitPro/PAlib/lib\libpa9.a(PA_BmpFont3.o)
 .bss           0x0209c2b0        0x0 c:/ndsdev/devkitPro/PAlib/lib\libpa9.a(PA_BmpFont4.o)
 .bss           0x0209c2b0        0x0 c:/ndsdev/devkitPro/PAlib/lib\libpa9.a(PA_TiledFont_Map.bin.o)
 .bss           0x0209c2b0        0x0 c:/ndsdev/devkitPro/PAlib/lib\libpa9.a(PA_TiledFont_Pal.bin.o)
 .bss           0x0209c2b0        0x0 c:/ndsdev/devkitPro/PAlib/lib\libpa9.a(PA_TiledFont_Tiles.bin.o)
 .bss           0x0209c2b0        0x0 c:/ndsdev/devkitPro/PAlib/lib\libpa9.a(PA_BmpFont0_Map.bin.o)
 .bss           0x0209c2b0        0x0 c:/ndsdev/devkitPro/PAlib/lib\libpa9.a(PA_BmpFont0_Sizes.bin.o)
 .bss           0x0209c2b0        0x0 c:/ndsdev/devkitPro/PAlib/lib\libpa9.a(PA_BmpFont0_Tiles.bin.o)
 .bss           0x0209c2b0        0x0 c:/ndsdev/devkitPro/PAlib/lib\libpa9.a(PA_BmpFont1_Map.bin.o)
 .bss           0x0209c2b0        0x0 c:/ndsdev/devkitPro/PAlib/lib\libpa9.a(PA_BmpFont1_Sizes.bin.o)
 .bss           0x0209c2b0        0x0 c:/ndsdev/devkitPro/PAlib/lib\libpa9.a(PA_BmpFont1_Tiles.bin.o)
 .bss           0x0209c2b0        0x0 c:/ndsdev/devkitPro/PAlib/lib\libpa9.a(PA_BmpFont2_Map.bin.o)
 .bss           0x0209c2b0        0x0 c:/ndsdev/devkitPro/PAlib/lib\libpa9.a(PA_BmpFont2_Sizes.bin.o)
 .bss           0x0209c2b0        0x0 c:/ndsdev/devkitPro/PAlib/lib\libpa9.a(PA_BmpFont2_Tiles.bin.o)
 .bss           0x0209c2b0        0x0 c:/ndsdev/devkitPro/PAlib/lib\libpa9.a(PA_BmpFont3_Map.bin.o)
 .bss           0x0209c2b0        0x0 c:/ndsdev/devkitPro/PAlib/lib\libpa9.a(PA_BmpFont3_Sizes.bin.o)
 .bss           0x0209c2b0        0x0 c:/ndsdev/devkitPro/PAlib/lib\libpa9.a(PA_BmpFont3_Tiles.bin.o)
 .bss           0x0209c2b0        0x0 c:/ndsdev/devkitPro/PAlib/lib\libpa9.a(PA_BmpFont4_Map.bin.o)
 .bss           0x0209c2b0        0x0 c:/ndsdev/devkitPro/PAlib/lib\libpa9.a(PA_BmpFont4_Sizes.bin.o)
 .bss           0x0209c2b0        0x0 c:/ndsdev/devkitPro/PAlib/lib\libpa9.a(PA_BmpFont4_Tiles.bin.o)
 .bss           0x0209c2b0        0x0 c:/ndsdev/devkitPro/PAlib/lib\libpa9.a(PA_16c.o)
 .bss           0x0209c2b0        0x0 c:/ndsdev/devkitPro/PAlib/lib\libpa9.a(PA_BgRot.o)
 .bss           0x0209c2b0        0x0 c:/ndsdev/devkitPro/PAlib/lib\libpa9.a(PA_Draw.o)
 .bss           0x0209c2b0        0x0 c:/ndsdev/devkitPro/PAlib/lib\libpa9.a(PA_Fifo.o)
 .bss           0x0209c2b0        0x1 c:/ndsdev/devkitPro/PAlib/lib\libpa9.a(PA_Keyboard.o)
                0x0209c2b0                keyb_screen
 .bss           0x0209c2b1        0x0 c:/ndsdev/devkitPro/PAlib/lib\libpa9.a(PA_PaletteEx.o)
 .bss           0x0209c2b1        0x0 c:/ndsdev/devkitPro/PAlib/lib\libpa9.a(keyboard.map.o)
 .bss           0x0209c2b1        0x0 c:/ndsdev/devkitPro/PAlib/lib\libpa9.a(keyboard.pal.o)
 .bss           0x0209c2b1        0x0 c:/ndsdev/devkitPro/PAlib/lib\libpa9.a(keyboard.raw.o)
 *fill*         0x0209c2b1        0x1 00
 .bss           0x0209c2b2        0x6 c:/ndsdev/devkitPro/libnds/lib\libnds9.a(keys.o)
 .bss           0x0209c2b8        0x0 c:/ndsdev/devkitPro/libnds/lib\libnds9.a(system.o)
 .bss           0x0209c2b8        0x0 c:/ndsdev/devkitPro/libnds/lib\libnds9.a(touch.o)
 .bss           0x0209c2b8        0x0 c:/ndsdev/devkitPro/libnds/lib\libnds9.a(video.o)
 .bss           0x0209c2b8        0x0 c:/ndsdev/devkitPro/libnds/lib\libnds9.a(initSystem.o)
 .bss           0x0209c2b8        0x8 c:/ndsdev/devkitPro/libnds/lib\libnds9.a(fifosystem.o)
                0x0209c2bc                processing
 .bss           0x0209c2c0        0x0 c:/ndsdev/devkitPro/libnds/lib\libnds9.a(interrupts.o)
 .bss           0x0209c2c0        0x0 c:/ndsdev/devkitPro/libnds/lib\libnds9.a(libnds_exit.o)
 .bss           0x0209c2c0        0x0 c:/ndsdev/devkitPro/libnds/lib\libnds9.a(dcache.o)
 .bss           0x0209c2c0        0x0 c:/ndsdev/devkitPro/libnds/lib\libnds9.a(mpu_setup.o)
 .bss           0x0209c2c0        0x0 c:/ndsdev/devkitPro/libnds/lib\libnds9.a(biosCalls.o)
 .bss           0x0209c2c0        0x0 c:/ndsdev/devkitPro/libnds/lib\libnds9.a(interruptDispatcher.o)
 .bss           0x0209c2c0        0x0 c:/ndsdev/devkitPro/libnds/lib\libnds9.a(swiSoftReset.o)
 .bss           0x0209c2c0        0x0 c:/ndsdev/devkitpro/devkitarm/bin/../lib/gcc/arm-eabi/4.5.1/thumb\libgcc.a(_udivsi3.o)
 .bss           0x0209c2c0        0x0 c:/ndsdev/devkitpro/devkitarm/bin/../lib/gcc/arm-eabi/4.5.1/thumb\libgcc.a(_divsi3.o)
 .bss           0x0209c2c0        0x0 c:/ndsdev/devkitpro/devkitarm/bin/../lib/gcc/arm-eabi/4.5.1/thumb\libgcc.a(_dvmd_tls.o)
 .bss           0x0209c2c0        0x0 c:/ndsdev/devkitpro/devkitarm/bin/../lib/gcc/arm-eabi/4.5.1/thumb\libgcc.a(_arm_addsubdf3.o)
 .bss           0x0209c2c0        0x0 c:/ndsdev/devkitpro/devkitarm/bin/../lib/gcc/arm-eabi/4.5.1/thumb\libgcc.a(_arm_muldivdf3.o)
 .bss           0x0209c2c0        0x0 c:/ndsdev/devkitpro/devkitarm/bin/../lib/gcc/arm-eabi/4.5.1/thumb\libgcc.a(_arm_cmpdf2.o)
 .bss           0x0209c2c0        0x0 c:/ndsdev/devkitpro/devkitarm/bin/../lib/gcc/arm-eabi/4.5.1/thumb\libgcc.a(_arm_fixdfsi.o)
 .bss           0x0209c2c0        0x0 c:/ndsdev/devkitpro/devkitarm/bin/../lib/gcc/arm-eabi/4.5.1/thumb\libgcc.a(_muldi3.o)
 .bss           0x0209c2c0        0x0 c:/ndsdev/devkitpro/devkitarm/bin/../lib/gcc/arm-eabi/4.5.1/../../../../arm-eabi/lib/thumb\libg.a(lib_a-gmtime.o)
 .bss           0x0209c2c0        0x0 c:/ndsdev/devkitpro/devkitarm/bin/../lib/gcc/arm-eabi/4.5.1/../../../../arm-eabi/lib/thumb\libg.a(lib_a-gmtime_r.o)
 .bss           0x0209c2c0        0x0 c:/ndsdev/devkitpro/devkitarm/bin/../lib/gcc/arm-eabi/4.5.1/../../../../arm-eabi/lib/thumb\libg.a(lib_a-impure.o)
 .bss           0x0209c2c0        0x0 c:/ndsdev/devkitpro/devkitarm/bin/../lib/gcc/arm-eabi/4.5.1/../../../../arm-eabi/lib/thumb\libg.a(lib_a-init.o)
 .bss           0x0209c2c0      0x2b8 c:/ndsdev/devkitpro/devkitarm/bin/../lib/gcc/arm-eabi/4.5.1/../../../../arm-eabi/lib/thumb\libg.a(lib_a-locale.o)
                0x0209c56c                __nlocale_changed
                0x0209c570                __mlocale_changed
                0x0209c574                _PathLocale
 .bss           0x0209c578        0x0 c:/ndsdev/devkitpro/devkitarm/bin/../lib/gcc/arm-eabi/4.5.1/../../../../arm-eabi/lib/thumb\libg.a(lib_a-malloc.o)
 .bss           0x0209c578       0x34 c:/ndsdev/devkitpro/devkitarm/bin/../lib/gcc/arm-eabi/4.5.1/../../../../arm-eabi/lib/thumb\libg.a(lib_a-mallocr.o)
                0x0209c578                __malloc_top_pad
                0x0209c57c                __malloc_current_mallinfo
                0x0209c5a4                __malloc_max_sbrked_mem
                0x0209c5a8                __malloc_max_total_mem
 .bss           0x0209c5ac        0x0 c:/ndsdev/devkitpro/devkitarm/bin/../lib/gcc/arm-eabi/4.5.1/../../../../arm-eabi/lib/thumb\libg.a(lib_a-mbtowc_r.o)
 .bss           0x0209c5ac        0x0 c:/ndsdev/devkitpro/devkitarm/bin/../lib/gcc/arm-eabi/4.5.1/../../../../arm-eabi/lib/thumb\libg.a(lib_a-memcpy.o)
 .bss           0x0209c5ac        0x0 c:/ndsdev/devkitpro/devkitarm/bin/../lib/gcc/arm-eabi/4.5.1/../../../../arm-eabi/lib/thumb\libg.a(lib_a-mktm_r.o)
 .bss           0x0209c5ac        0x0 c:/ndsdev/devkitpro/devkitarm/bin/../lib/gcc/arm-eabi/4.5.1/../../../../arm-eabi/lib/thumb\libg.a(lib_a-mlock.o)
 .bss           0x0209c5ac        0x0 c:/ndsdev/devkitpro/devkitarm/bin/../lib/gcc/arm-eabi/4.5.1/../../../../arm-eabi/lib/thumb\libg.a(lib_a-strcasecmp.o)
 .bss           0x0209c5ac        0x0 c:/ndsdev/devkitpro/devkitarm/bin/../lib/gcc/arm-eabi/4.5.1/../../../../arm-eabi/lib/thumb\libg.a(lib_a-strcat.o)
 .bss           0x0209c5ac        0x0 c:/ndsdev/devkitpro/devkitarm/bin/../lib/gcc/arm-eabi/4.5.1/../../../../arm-eabi/lib/thumb\libg.a(lib_a-strchr.o)
 .bss           0x0209c5ac        0x0 c:/ndsdev/devkitpro/devkitarm/bin/../lib/gcc/arm-eabi/4.5.1/../../../../arm-eabi/lib/thumb\libg.a(lib_a-strcmp.o)
 .bss           0x0209c5ac        0x0 c:/ndsdev/devkitpro/devkitarm/bin/../lib/gcc/arm-eabi/4.5.1/../../../../arm-eabi/lib/thumb\libg.a(lib_a-strcpy.o)
 .bss           0x0209c5ac        0x0 c:/ndsdev/devkitpro/devkitarm/bin/../lib/gcc/arm-eabi/4.5.1/../../../../arm-eabi/lib/thumb\libg.a(lib_a-strlcpy.o)
 .bss           0x0209c5ac        0x0 c:/ndsdev/devkitpro/devkitarm/bin/../lib/gcc/arm-eabi/4.5.1/../../../../arm-eabi/lib/thumb\libg.a(lib_a-strlen.o)
 .bss           0x0209c5ac        0x0 c:/ndsdev/devkitpro/devkitarm/bin/../lib/gcc/arm-eabi/4.5.1/../../../../arm-eabi/lib/thumb\libg.a(lib_a-strncasecmp.o)
 .bss           0x0209c5ac        0x0 c:/ndsdev/devkitpro/devkitarm/bin/../lib/gcc/arm-eabi/4.5.1/../../../../arm-eabi/lib/thumb\libg.a(lib_a-strncmp.o)
 .bss           0x0209c5ac        0x0 c:/ndsdev/devkitpro/devkitarm/bin/../lib/gcc/arm-eabi/4.5.1/../../../../arm-eabi/lib/thumb\libg.a(lib_a-strncpy.o)
 .bss           0x0209c5ac        0x0 c:/ndsdev/devkitpro/devkitarm/bin/../lib/gcc/arm-eabi/4.5.1/../../../../arm-eabi/lib/thumb\libg.a(lib_a-strtol.o)
 .bss           0x0209c5ac        0x0 c:/ndsdev/devkitpro/devkitarm/bin/../lib/gcc/arm-eabi/4.5.1/../../../../arm-eabi/lib/thumb\libg.a(lib_a-sysstat.o)
 .bss           0x0209c5ac        0x0 c:/ndsdev/devkitpro/devkitarm/bin/../lib/gcc/arm-eabi/4.5.1/../../../../arm-eabi/lib/thumb\libg.a(lib_a-time.o)
 .bss           0x0209c5ac        0x0 c:/ndsdev/devkitpro/devkitarm/bin/../lib/gcc/arm-eabi/4.5.1/../../../../arm-eabi/lib/thumb\libg.a(lib_a-tzlock.o)
 .bss           0x0209c5ac        0x8 c:/ndsdev/devkitpro/devkitarm/bin/../lib/gcc/arm-eabi/4.5.1/../../../../arm-eabi/lib/thumb\libg.a(lib_a-tzvars.o)
                0x0209c5ac                _daylight
                0x0209c5b0                _timezone
 .bss           0x0209c5b4        0x0 c:/ndsdev/devkitpro/devkitarm/bin/../lib/gcc/arm-eabi/4.5.1/../../../../arm-eabi/lib/thumb\libg.a(lib_a-wctomb_r.o)
 .bss           0x0209c5b4        0x0 c:/ndsdev/devkitpro/devkitarm/bin/../lib/gcc/arm-eabi/4.5.1/../../../../arm-eabi/lib/thumb\libg.a(lib_a-ctype_.o)
 .bss           0x0209c5b4        0x0 c:/ndsdev/devkitpro/devkitarm/bin/../lib/gcc/arm-eabi/4.5.1/../../../../arm-eabi/lib/thumb\libg.a(lib_a-freer.o)
 .bss           0x0209c5b4        0x0 c:/ndsdev/devkitpro/devkitarm/bin/../lib/gcc/arm-eabi/4.5.1/../../../../arm-eabi/lib/thumb\libg.a(lib_a-getenv_r.o)
 .bss           0x0209c5b4        0x0 c:/ndsdev/devkitpro/devkitarm/bin/../lib/gcc/arm-eabi/4.5.1/../../../../arm-eabi/lib/thumb\libg.a(lib_a-gettzinfo.o)
 .bss           0x0209c5b4        0x4 c:/ndsdev/devkitpro/devkitarm/bin/../lib/gcc/arm-eabi/4.5.1/../../../../arm-eabi/lib/thumb\libg.a(lib_a-environ.o)
 .bss           0x0209c5b8        0x0 c:/ndsdev/devkitpro/devkitarm/bin/../lib/gcc/arm-eabi/4.5.1/../../../../arm-eabi/lib/thumb\libg.a(lib_a-envlock.o)
 .bss           0x0209c5b8        0x4 c:/ndsdev/devkitpro/devkitarm/bin/../lib/gcc/arm-eabi/4.5.1/../../../../arm-eabi/lib/thumb\libsysbase.a(sbrk.o)
 .bss           0x0209c5bc        0x0 c:/ndsdev/devkitpro/devkitarm/bin/../lib/gcc/arm-eabi/4.5.1/../../../../arm-eabi/lib/thumb\libsysbase.a(stat.o)
 .bss           0x0209c5bc        0x0 c:/ndsdev/devkitpro/devkitarm/bin/../lib/gcc/arm-eabi/4.5.1/../../../../arm-eabi/lib/thumb\libsysbase.a(times.o)
 .bss           0x0209c5bc        0x8 c:/ndsdev/devkitpro/devkitarm/bin/../lib/gcc/arm-eabi/4.5.1/../../../../arm-eabi/lib/thumb\libsysbase.a(malloc_vars.o)
                0x0209c5bc                fake_heap_end
                0x0209c5c0                fake_heap_start
 .bss           0x0209c5c4        0x0 c:/ndsdev/devkitpro/devkitarm/bin/../lib/gcc/arm-eabi/4.5.1/../../../../arm-eabi/lib/thumb\libsysbase.a(build_argv.o)
 .bss           0x0209c5c4        0x8 c:/ndsdev/devkitpro/devkitarm/bin/../lib/gcc/arm-eabi/4.5.1/../../../../arm-eabi/lib/thumb\libsysbase.a(syscall_support.o)
                0x0209c5c4                __syscalls
 .bss           0x0209c5cc        0x0 c:/ndsdev/devkitpro/devkitarm/bin/../lib/gcc/arm-eabi/4.5.1/../../../../arm-eabi/lib/thumb\libsysbase.a(dirent.o)
 .bss           0x0209c5cc        0x0 c:/ndsdev/devkitpro/devkitarm/bin/../lib/gcc/arm-eabi/4.5.1/../../../../arm-eabi/lib/thumb\libsysbase.a(iosupport.o)
 .bss           0x0209c5cc        0x0 c:/ndsdev/devkitpro/devkitarm/bin/../lib/gcc/arm-eabi/4.5.1/../../../../arm-eabi/lib/thumb\libsysbase.a(dir.o)
 .bss           0x0209c5cc        0x0 c:/ndsdev/devkitpro/devkitarm/bin/../lib/gcc/arm-eabi/4.5.1/../../../../arm-eabi/lib/thumb\libg.a(lib_a-errno.o)
 .bss           0x0209c5cc        0x0 c:/ndsdev/devkitpro/devkitarm/bin/../lib/gcc/arm-eabi/4.5.1/../../../../arm-eabi/lib/thumb\libg.a(lib_a-strnlen.o)
 .bss           0x0209c5cc        0x0 c:/ndsdev/devkitpro/devkitarm/bin/../lib/gcc/arm-eabi/4.5.1/thumb/crtend.o
 .bss           0x0209c5cc        0x0 c:/ndsdev/devkitpro/devkitarm/bin/../lib/gcc/arm-eabi/4.5.1/thumb/crtn.o
 *(COMMON)
 COMMON         0x0209c5cc      0x22c c:/ndsdev/devkitPro/PAlib/lib\libpa9.a(PA.o)
                0x0209c5cc                PA_ScreenSpace
                0x0209c5d0                PadPointer
                0x0209c5d4                pa_checklid
                0x0209c5d8                PA_IPC
                0x0209c770                Pad
                0x0209c798                Stylus
                0x0209c7b4                PA_bgmap
                0x0209c7d4                PA_GifInfo
                0x0209c7e8                PA_MovedSprite
 COMMON         0x0209c7f8      0x3d0 c:/ndsdev/devkitPro/PAlib/lib\libpa9.a(PA_BgTiles.o)
                0x0209c7f8                PA_parallaxY
                0x0209c818                PA_parallaxX
                0x0209c838                tempsize
                0x0209c83c                charblocks
                0x0209c8c8                PA_BgInfo
                0x0209cae8                scrollpos
 COMMON         0x0209cbc8       0x50 c:/ndsdev/devkitPro/PAlib/lib\libpa9.a(PA_Interrupt.o)
                0x0209cbc8                PA_VBLCounter
                0x0209cc08                PA_VBLCounterOn
 COMMON         0x0209cc18        0x1 c:/ndsdev/devkitPro/PAlib/lib\libpa9.a(PA_Keys.o)
                0x0209cc18                _PA_LidDown
 *fill*         0x0209cc19        0x3 00
 COMMON         0x0209cc1c        0x4 c:/ndsdev/devkitPro/PAlib/lib\libpa9.a(PA_Palette.o)
                0x0209cc1c                PA_ExtPal
 COMMON         0x0209cc20       0x5a c:/ndsdev/devkitPro/PAlib/lib\libpa9.a(PA_RTC.o)
                0x0209cc20                PA_RTC
                0x0209cc28                PA_UserInfo
 *fill*         0x0209cc7a        0x2 00
 COMMON         0x0209cc7c     0xa9bc c:/ndsdev/devkitPro/PAlib/lib\libpa9.a(PA_Reco.o)
                0x0209cc7c                PA_Reco
                0x0209cc88                PA_RecoInfo
                0x0209cca0                PA_StylusPos
                0x020a68e0                PA_CustomShape
                0x020a7628                PA_RecoShape
 COMMON         0x020a7638     0x8204 c:/ndsdev/devkitPro/PAlib/lib\libpa9.a(PA_Sprite.o)
                0x020a7638                free_mem
                0x020a9638                n_free_mem
                0x020a963c                PA_SpritePrio
                0x020a973c                used_mem
                0x020a9f3c                spriteanims
                0x020ac33c                PA_SpriteAnimP
                0x020ae33c                PA_first
                0x020ae53c                PA_next
                0x020ae63c                obj_per_gfx
                0x020aee3c                PA_obj
                0x020af63c                DualSpriteX
                0x020af73c                pa_obj_created
 COMMON         0x020af83c       0x3c c:/ndsdev/devkitPro/PAlib/lib\libpa9.a(PA_Text.o)
                0x020af83c                PA_texttiles
                0x020af844                PA_TextBox
                0x020af84c                PAbgtext
                0x020af850                pa_printx
                0x020af858                pa_printy
                0x020af860                textcol
                0x020af864                pa_printscroll
                0x020af868                PA_textpal
                0x020af870                PA_textmap
 COMMON         0x020af878     0x301a c:/ndsdev/devkitPro/PAlib/lib\libpa9.a(PA_TextBits.o)
                0x020af878                PA_LetterPos
                0x020b287c                pa_bittextpoliceheight
                0x020b2888                pa_bittextsizes
 *fill*         0x020b2892        0x2 00
 COMMON         0x020b2894       0x10 c:/ndsdev/devkitPro/PAlib/lib\libpa9.a(PA_16c.o)
                0x020b2894                PA_Draw16
                0x020b289c                PA_Draw1632
 COMMON         0x020b28a4        0x8 c:/ndsdev/devkitPro/PAlib/lib\libpa9.a(PA_BgRot.o)
                0x020b28a4                rotbg_size
 COMMON         0x020b28ac      0x226 c:/ndsdev/devkitPro/PAlib/lib\libpa9.a(PA_Draw.o)
                0x020b28ac                PA_olddowntime
                0x020b28b0                PA_DrawBg32
                0x020b28b8                PA_DrawBg
                0x020b28c0                PA_oldx
                0x020b28c4                PA_drawsize
                0x020b28c8                PA_oldy
                0x020b28cc                tempvar
                0x020b28d0                PA_temppal
                0x020b2ad0                PA_nBit
 *fill*         0x020b2ad2        0x2 00
 COMMON         0x020b2ad4       0x12 c:/ndsdev/devkitPro/PAlib/lib\libpa9.a(PA_Keyboard.o)
                0x020b2ad4                PA_Keyboard_Struct
 *fill*         0x020b2ae6        0x2 00
 COMMON         0x020b2ae8      0xa40 c:/ndsdev/devkitPro/libnds/lib\libnds9.a(fifosystem.o)
                0x020b2ae8                fifo_datamsg_data
                0x020b2b28                fifo_buffer
                0x020b3328                fifo_value32_func
                0x020b3368                fifo_address_func
                0x020b33a8                fifo_value32_data
                0x020b33e8                fifo_value32_queue
                0x020b3428                fifo_data_queue
                0x020b3468                fifo_address_data
                0x020b34a8                fifo_datamsg_func
                0x020b34e8                fifo_address_queue
 COMMON         0x020b3528        0x4 c:/ndsdev/devkitpro/devkitarm/bin/../lib/gcc/arm-eabi/4.5.1/../../../../arm-eabi/lib/thumb\libsysbase.a(times.o)
                0x020b3528                punixTime
                0x020b352c                . = ALIGN (0x4)
                0x020b352c                __bss_end = ABSOLUTE (.)
                0x020b352c                __bss_end__ = __bss_end
                0x020b352c                _end = __bss_end__
                0x020b352c                __end__ = __bss_end__

.stab
 *(.stab)

.stabstr
 *(.stabstr)

.stab.excl
 *(.stab.excl)

.stab.exclstr
 *(.stab.exclstr)

.stab.index
 *(.stab.index)

.stab.indexstr
 *(.stab.indexstr)

.ARM.attributes
                0x00000000       0x2d load address 0x0209c258
 .ARM.attributes
                0x00000000       0x21 c:/ndsdev/devkitpro/devkitarm/bin/../lib/gcc/arm-eabi/4.5.1/../../../../arm-eabi/lib/thumb/ds_arm9_crt0.o
 .ARM.attributes
                0x00000021       0x20 c:/ndsdev/devkitpro/devkitarm/bin/../lib/gcc/arm-eabi/4.5.1/thumb/crti.o
 .ARM.attributes
                0x00000041       0x30 c:/ndsdev/devkitpro/devkitarm/bin/../lib/gcc/arm-eabi/4.5.1/thumb/crtbegin.o
 .ARM.attributes
                0x00000071       0x14 Town_Map.o
 .ARM.attributes
                0x00000085       0x14 Town_Pal.o
 .ARM.attributes
                0x00000099       0x14 Town_Tiles.o
 .ARM.attributes
                0x000000ad       0x14 bg_main_down_Map.o
 .ARM.attributes
                0x000000c1       0x14 bg_main_down_Pal.o
 .ARM.attributes
                0x000000d5       0x14 bg_main_down_Tiles.o
 .ARM.attributes
                0x000000e9       0x14 bg_main_up_Map.o
 .ARM.attributes
                0x000000fd       0x14 bg_main_up_Pal.o
 .ARM.attributes
                0x00000111       0x14 bg_main_up_Tiles.o
 .ARM.attributes
                0x00000125       0x14 bg_menu_Map.o
 .ARM.attributes
                0x00000139       0x14 bg_menu_Pal.o
 .ARM.attributes
                0x0000014d       0x14 bg_menu_Tiles.o
 .ARM.attributes
                0x00000161       0x14 bg_stage1_init_Map.o
 .ARM.attributes
                0x00000175       0x14 bg_stage1_init_Pal.o
 .ARM.attributes
                0x00000189       0x14 bg_stage1_init_Tiles.o
 .ARM.attributes
                0x0000019d       0x14 bg_stage2_init_Map.o
 .ARM.attributes
                0x000001b1       0x14 bg_stage2_init_Pal.o
 .ARM.attributes
                0x000001c5       0x14 bg_stage2_init_Tiles.o
 .ARM.attributes
                0x000001d9       0x14 bg_stage3_init_Map.o
 .ARM.attributes
                0x000001ed       0x14 bg_stage3_init_Pal.o
 .ARM.attributes
                0x00000201       0x14 bg_stage3_init_Tiles.o
 .ARM.attributes
                0x00000215       0x14 gameover_Map.o
 .ARM.attributes
                0x00000229       0x14 gameover_Pal.o
 .ARM.attributes
                0x0000023d       0x14 gameover_Tiles.o
 .ARM.attributes
                0x00000251       0x14 hpminus_Pal.o
 .ARM.attributes
                0x00000265       0x14 hpminus_Sprite.o
 .ARM.attributes
                0x00000279       0x14 monster_Pal.o
 .ARM.attributes
                0x0000028d       0x14 monster_Sprite.o
 .ARM.attributes
                0x000002a1       0x14 princess_Pal.o
 .ARM.attributes
                0x000002b5       0x14 princess_Sprite.o
 .ARM.attributes
                0x000002c9       0x14 som_Pal.o
 .ARM.attributes
                0x000002dd       0x14 som_Sprite.o
 .ARM.attributes
                0x000002f1       0x14 sprite1_Pal.o
 .ARM.attributes
                0x00000305       0x14 sprite1_Sprite.o
 .ARM.attributes
                0x00000319       0x14 stage1_Map.o
 .ARM.attributes
                0x0000032d       0x14 stage1_Pal.o
 .ARM.attributes
                0x00000341       0x14 stage1_Tiles.o
 .ARM.attributes
                0x00000355       0x14 stage2_Map.o
 .ARM.attributes
                0x00000369       0x14 stage2_Pal.o
 .ARM.attributes
                0x0000037d       0x14 stage2_Tiles.o
 .ARM.attributes
                0x00000391       0x14 water_Pal.o
 .ARM.attributes
                0x000003a5       0x14 water_Sprite.o
 .ARM.attributes
                0x000003b9       0x27 Town.o
 .ARM.attributes
                0x000003e0       0x27 bg_main_down.o
 .ARM.attributes
                0x00000407       0x27 bg_main_up.o
 .ARM.attributes
                0x0000042e       0x27 bg_menu.o
 .ARM.attributes
                0x00000455       0x27 bg_stage1_init.o
 .ARM.attributes
                0x0000047c       0x27 bg_stage2_init.o
 .ARM.attributes
                0x000004a3       0x27 bg_stage3_init.o
 .ARM.attributes
                0x000004ca       0x27 gameover.o
 .ARM.attributes
                0x000004f1       0x27 stage1.o
 .ARM.attributes
                0x00000518       0x27 stage2.o
 .ARM.attributes
                0x0000053f       0x27 crystal.o
 .ARM.attributes
                0x00000566       0x27 crystal_Ball.o
 .ARM.attributes
                0x0000058d       0x27 cs_api.o
 .ARM.attributes
                0x000005b4       0x27 game.o
 .ARM.attributes
                0x000005db       0x27 hero.o
 .ARM.attributes
                0x00000602       0x27 main.o
 .ARM.attributes
                0x00000629       0x27 menu.o
 .ARM.attributes
                0x00000650       0x27 monster.o
 .ARM.attributes
                0x00000677       0x27 princess.o
 .ARM.attributes
                0x0000069e       0x27 water.o
 .ARM.attributes
                0x000006c5       0x27 c:/ndsdev/devkitPro/PAlib/lib\libpa9.a(PA.o)
 .ARM.attributes
                0x000006ec       0x27 c:/ndsdev/devkitPro/PAlib/lib\libpa9.a(PA_BgEasy.o)
 .ARM.attributes
                0x00000713       0x27 c:/ndsdev/devkitPro/PAlib/lib\libpa9.a(PA_BgLargeMap.o)
 .ARM.attributes
                0x0000073a       0x27 c:/ndsdev/devkitPro/PAlib/lib\libpa9.a(PA_BgTiles.o)
 .ARM.attributes
                0x00000761       0x27 c:/ndsdev/devkitPro/PAlib/lib\libpa9.a(PA_Error.o)
 .ARM.attributes
                0x00000788       0x27 c:/ndsdev/devkitPro/PAlib/lib\libpa9.a(PA_Inits.o)
 .ARM.attributes
                0x000007af       0x27 c:/ndsdev/devkitPro/PAlib/lib\libpa9.a(PA_Interrupt.o)
 .ARM.attributes
                0x000007d6       0x27 c:/ndsdev/devkitPro/PAlib/lib\libpa9.a(PA_Keys.o)
 .ARM.attributes
                0x000007fd       0x27 c:/ndsdev/devkitPro/PAlib/lib\libpa9.a(PA_Math.o)
 .ARM.attributes
                0x00000824       0x27 c:/ndsdev/devkitPro/PAlib/lib\libpa9.a(PA_NewBg.o)
 .ARM.attributes
                0x0000084b       0x27 c:/ndsdev/devkitPro/PAlib/lib\libpa9.a(PA_Palette.o)
 .ARM.attributes
                0x00000872       0x27 c:/ndsdev/devkitPro/PAlib/lib\libpa9.a(PA_RTC.o)
 .ARM.attributes
                0x00000899       0x27 c:/ndsdev/devkitPro/PAlib/lib\libpa9.a(PA_Reco.o)
 .ARM.attributes
                0x000008c0       0x27 c:/ndsdev/devkitPro/PAlib/lib\libpa9.a(PA_Sprite.o)
 .ARM.attributes
                0x000008e7       0x27 c:/ndsdev/devkitPro/PAlib/lib\libpa9.a(PA_SpriteAnim.o)
 .ARM.attributes
                0x0000090e       0x27 c:/ndsdev/devkitPro/PAlib/lib\libpa9.a(PA_Stuff.o)
 .ARM.attributes
                0x00000935       0x27 c:/ndsdev/devkitPro/PAlib/lib\libpa9.a(PA_Text.o)
 .ARM.attributes
                0x0000095c       0x27 c:/ndsdev/devkitPro/PAlib/lib\libpa9.a(PA_Text8bit.o)
 .ARM.attributes
                0x00000983       0x27 c:/ndsdev/devkitPro/PAlib/lib\libpa9.a(PA_TextBits.o)
 .ARM.attributes
                0x000009aa       0x27 c:/ndsdev/devkitPro/PAlib/lib\libpa9.a(PA_TiledFont.o)
 .ARM.attributes
                0x000009d1       0x27 c:/ndsdev/devkitPro/PAlib/lib\libpa9.a(PA_BmpFont0.o)
 .ARM.attributes
                0x000009f8       0x27 c:/ndsdev/devkitPro/PAlib/lib\libpa9.a(PA_BmpFont1.o)
 .ARM.attributes
                0x00000a1f       0x27 c:/ndsdev/devkitPro/PAlib/lib\libpa9.a(PA_BmpFont2.o)
 .ARM.attributes
                0x00000a46       0x27 c:/ndsdev/devkitPro/PAlib/lib\libpa9.a(PA_BmpFont3.o)
 .ARM.attributes
                0x00000a6d       0x27 c:/ndsdev/devkitPro/PAlib/lib\libpa9.a(PA_BmpFont4.o)
 .ARM.attributes
                0x00000a94       0x14 c:/ndsdev/devkitPro/PAlib/lib\libpa9.a(PA_TiledFont_Map.bin.o)
 .ARM.attributes
                0x00000aa8       0x14 c:/ndsdev/devkitPro/PAlib/lib\libpa9.a(PA_TiledFont_Pal.bin.o)
 .ARM.attributes
                0x00000abc       0x14 c:/ndsdev/devkitPro/PAlib/lib\libpa9.a(PA_TiledFont_Tiles.bin.o)
 .ARM.attributes
                0x00000ad0       0x14 c:/ndsdev/devkitPro/PAlib/lib\libpa9.a(PA_BmpFont0_Map.bin.o)
 .ARM.attributes
                0x00000ae4       0x14 c:/ndsdev/devkitPro/PAlib/lib\libpa9.a(PA_BmpFont0_Sizes.bin.o)
 .ARM.attributes
                0x00000af8       0x14 c:/ndsdev/devkitPro/PAlib/lib\libpa9.a(PA_BmpFont0_Tiles.bin.o)
 .ARM.attributes
                0x00000b0c       0x14 c:/ndsdev/devkitPro/PAlib/lib\libpa9.a(PA_BmpFont1_Map.bin.o)
 .ARM.attributes
                0x00000b20       0x14 c:/ndsdev/devkitPro/PAlib/lib\libpa9.a(PA_BmpFont1_Sizes.bin.o)
 .ARM.attributes
                0x00000b34       0x14 c:/ndsdev/devkitPro/PAlib/lib\libpa9.a(PA_BmpFont1_Tiles.bin.o)
 .ARM.attributes
                0x00000b48       0x14 c:/ndsdev/devkitPro/PAlib/lib\libpa9.a(PA_BmpFont2_Map.bin.o)
 .ARM.attributes
                0x00000b5c       0x14 c:/ndsdev/devkitPro/PAlib/lib\libpa9.a(PA_BmpFont2_Sizes.bin.o)
 .ARM.attributes
                0x00000b70       0x14 c:/ndsdev/devkitPro/PAlib/lib\libpa9.a(PA_BmpFont2_Tiles.bin.o)
 .ARM.attributes
                0x00000b84       0x14 c:/ndsdev/devkitPro/PAlib/lib\libpa9.a(PA_BmpFont3_Map.bin.o)
 .ARM.attributes
                0x00000b98       0x14 c:/ndsdev/devkitPro/PAlib/lib\libpa9.a(PA_BmpFont3_Sizes.bin.o)
 .ARM.attributes
                0x00000bac       0x14 c:/ndsdev/devkitPro/PAlib/lib\libpa9.a(PA_BmpFont3_Tiles.bin.o)
 .ARM.attributes
                0x00000bc0       0x14 c:/ndsdev/devkitPro/PAlib/lib\libpa9.a(PA_BmpFont4_Map.bin.o)
 .ARM.attributes
                0x00000bd4       0x14 c:/ndsdev/devkitPro/PAlib/lib\libpa9.a(PA_BmpFont4_Sizes.bin.o)
 .ARM.attributes
                0x00000be8       0x14 c:/ndsdev/devkitPro/PAlib/lib\libpa9.a(PA_BmpFont4_Tiles.bin.o)
 .ARM.attributes
                0x00000bfc       0x27 c:/ndsdev/devkitPro/PAlib/lib\libpa9.a(PA_16c.o)
 .ARM.attributes
                0x00000c23       0x27 c:/ndsdev/devkitPro/PAlib/lib\libpa9.a(PA_BgRot.o)
 .ARM.attributes
                0x00000c4a       0x27 c:/ndsdev/devkitPro/PAlib/lib\libpa9.a(PA_Draw.o)
 .ARM.attributes
                0x00000c71       0x27 c:/ndsdev/devkitPro/PAlib/lib\libpa9.a(PA_Fifo.o)
 .ARM.attributes
                0x00000c98       0x27 c:/ndsdev/devkitPro/PAlib/lib\libpa9.a(PA_Keyboard.o)
 .ARM.attributes
                0x00000cbf       0x27 c:/ndsdev/devkitPro/PAlib/lib\libpa9.a(PA_PaletteEx.o)
 .ARM.attributes
                0x00000ce6       0x27 c:/ndsdev/devkitPro/PAlib/lib\libpa9.a(keyboard.map.o)
 .ARM.attributes
                0x00000d0d       0x27 c:/ndsdev/devkitPro/PAlib/lib\libpa9.a(keyboard.pal.o)
 .ARM.attributes
                0x00000d34       0x27 c:/ndsdev/devkitPro/PAlib/lib\libpa9.a(keyboard.raw.o)
 .ARM.attributes
                0x00000d5b       0x27 c:/ndsdev/devkitPro/libnds/lib\libnds9.a(keys.o)
 .ARM.attributes
                0x00000d82       0x27 c:/ndsdev/devkitPro/libnds/lib\libnds9.a(system.o)
 .ARM.attributes
                0x00000da9       0x27 c:/ndsdev/devkitPro/libnds/lib\libnds9.a(touch.o)
 .ARM.attributes
                0x00000dd0       0x27 c:/ndsdev/devkitPro/libnds/lib\libnds9.a(video.o)
 .ARM.attributes
                0x00000df7       0x27 c:/ndsdev/devkitPro/libnds/lib\libnds9.a(initSystem.o)
 .ARM.attributes
                0x00000e1e       0x27 c:/ndsdev/devkitPro/libnds/lib\libnds9.a(fifosystem.o)
 .ARM.attributes
                0x00000e45       0x27 c:/ndsdev/devkitPro/libnds/lib\libnds9.a(interrupts.o)
 .ARM.attributes
                0x00000e6c       0x27 c:/ndsdev/devkitPro/libnds/lib\libnds9.a(libnds_exit.o)
 .ARM.attributes
                0x00000e93       0x1b c:/ndsdev/devkitPro/libnds/lib\libnds9.a(dcache.o)
 .ARM.attributes
                0x00000eae       0x21 c:/ndsdev/devkitPro/libnds/lib\libnds9.a(mpu_setup.o)
 .ARM.attributes
                0x00000ecf       0x1b c:/ndsdev/devkitPro/libnds/lib\libnds9.a(biosCalls.o)
 .ARM.attributes
                0x00000eea       0x1b c:/ndsdev/devkitPro/libnds/lib\libnds9.a(interruptDispatcher.o)
 .ARM.attributes
                0x00000f05       0x21 c:/ndsdev/devkitPro/libnds/lib\libnds9.a(swiSoftReset.o)
 .ARM.attributes
                0x00000f26       0x22 c:/ndsdev/devkitpro/devkitarm/bin/../lib/gcc/arm-eabi/4.5.1/thumb\libgcc.a(_udivsi3.o)
 .ARM.attributes
                0x00000f48       0x22 c:/ndsdev/devkitpro/devkitarm/bin/../lib/gcc/arm-eabi/4.5.1/thumb\libgcc.a(_divsi3.o)
 .ARM.attributes
                0x00000f6a       0x22 c:/ndsdev/devkitpro/devkitarm/bin/../lib/gcc/arm-eabi/4.5.1/thumb\libgcc.a(_dvmd_tls.o)
 .ARM.attributes
                0x00000f8c       0x22 c:/ndsdev/devkitpro/devkitarm/bin/../lib/gcc/arm-eabi/4.5.1/thumb\libgcc.a(_arm_addsubdf3.o)
 .ARM.attributes
                0x00000fae       0x22 c:/ndsdev/devkitpro/devkitarm/bin/../lib/gcc/arm-eabi/4.5.1/thumb\libgcc.a(_arm_muldivdf3.o)
 .ARM.attributes
                0x00000fd0       0x22 c:/ndsdev/devkitpro/devkitarm/bin/../lib/gcc/arm-eabi/4.5.1/thumb\libgcc.a(_arm_cmpdf2.o)
 .ARM.attributes
                0x00000ff2       0x22 c:/ndsdev/devkitpro/devkitarm/bin/../lib/gcc/arm-eabi/4.5.1/thumb\libgcc.a(_arm_fixdfsi.o)
 .ARM.attributes
                0x00001014       0x30 c:/ndsdev/devkitpro/devkitarm/bin/../lib/gcc/arm-eabi/4.5.1/thumb\libgcc.a(_muldi3.o)
 .ARM.attributes
                0x00001044       0x30 c:/ndsdev/devkitpro/devkitarm/bin/../lib/gcc/arm-eabi/4.5.1/../../../../arm-eabi/lib/thumb\libg.a(lib_a-gmtime.o)
 .ARM.attributes
                0x00001074       0x30 c:/ndsdev/devkitpro/devkitarm/bin/../lib/gcc/arm-eabi/4.5.1/../../../../arm-eabi/lib/thumb\libg.a(lib_a-gmtime_r.o)
 .ARM.attributes
                0x000010a4       0x30 c:/ndsdev/devkitpro/devkitarm/bin/../lib/gcc/arm-eabi/4.5.1/../../../../arm-eabi/lib/thumb\libg.a(lib_a-impure.o)
 .ARM.attributes
                0x000010d4       0x30 c:/ndsdev/devkitpro/devkitarm/bin/../lib/gcc/arm-eabi/4.5.1/../../../../arm-eabi/lib/thumb\libg.a(lib_a-init.o)
 .ARM.attributes
                0x00001104       0x30 c:/ndsdev/devkitpro/devkitarm/bin/../lib/gcc/arm-eabi/4.5.1/../../../../arm-eabi/lib/thumb\libg.a(lib_a-locale.o)
 .ARM.attributes
                0x00001134       0x30 c:/ndsdev/devkitpro/devkitarm/bin/../lib/gcc/arm-eabi/4.5.1/../../../../arm-eabi/lib/thumb\libg.a(lib_a-malloc.o)
 .ARM.attributes
                0x00001164       0x30 c:/ndsdev/devkitpro/devkitarm/bin/../lib/gcc/arm-eabi/4.5.1/../../../../arm-eabi/lib/thumb\libg.a(lib_a-mallocr.o)
 .ARM.attributes
                0x00001194       0x30 c:/ndsdev/devkitpro/devkitarm/bin/../lib/gcc/arm-eabi/4.5.1/../../../../arm-eabi/lib/thumb\libg.a(lib_a-mbtowc_r.o)
 .ARM.attributes
                0x000011c4       0x30 c:/ndsdev/devkitpro/devkitarm/bin/../lib/gcc/arm-eabi/4.5.1/../../../../arm-eabi/lib/thumb\libg.a(lib_a-memcpy.o)
 .ARM.attributes
                0x000011f4       0x30 c:/ndsdev/devkitpro/devkitarm/bin/../lib/gcc/arm-eabi/4.5.1/../../../../arm-eabi/lib/thumb\libg.a(lib_a-mktm_r.o)
 .ARM.attributes
                0x00001224       0x30 c:/ndsdev/devkitpro/devkitarm/bin/../lib/gcc/arm-eabi/4.5.1/../../../../arm-eabi/lib/thumb\libg.a(lib_a-mlock.o)
 .ARM.attributes
                0x00001254       0x30 c:/ndsdev/devkitpro/devkitarm/bin/../lib/gcc/arm-eabi/4.5.1/../../../../arm-eabi/lib/thumb\libg.a(lib_a-strcasecmp.o)
 .ARM.attributes
                0x00001284       0x30 c:/ndsdev/devkitpro/devkitarm/bin/../lib/gcc/arm-eabi/4.5.1/../../../../arm-eabi/lib/thumb\libg.a(lib_a-strcat.o)
 .ARM.attributes
                0x000012b4       0x30 c:/ndsdev/devkitpro/devkitarm/bin/../lib/gcc/arm-eabi/4.5.1/../../../../arm-eabi/lib/thumb\libg.a(lib_a-strchr.o)
 .ARM.attributes
                0x000012e4       0x30 c:/ndsdev/devkitpro/devkitarm/bin/../lib/gcc/arm-eabi/4.5.1/../../../../arm-eabi/lib/thumb\libg.a(lib_a-strcmp.o)
 .ARM.attributes
                0x00001314       0x30 c:/ndsdev/devkitpro/devkitarm/bin/../lib/gcc/arm-eabi/4.5.1/../../../../arm-eabi/lib/thumb\libg.a(lib_a-strcpy.o)
 .ARM.attributes
                0x00001344       0x30 c:/ndsdev/devkitpro/devkitarm/bin/../lib/gcc/arm-eabi/4.5.1/../../../../arm-eabi/lib/thumb\libg.a(lib_a-strlcpy.o)
 .ARM.attributes
                0x00001374       0x30 c:/ndsdev/devkitpro/devkitarm/bin/../lib/gcc/arm-eabi/4.5.1/../../../../arm-eabi/lib/thumb\libg.a(lib_a-strlen.o)
 .ARM.attributes
                0x000013a4       0x30 c:/ndsdev/devkitpro/devkitarm/bin/../lib/gcc/arm-eabi/4.5.1/../../../../arm-eabi/lib/thumb\libg.a(lib_a-strncasecmp.o)
 .ARM.attributes
                0x000013d4       0x30 c:/ndsdev/devkitpro/devkitarm/bin/../lib/gcc/arm-eabi/4.5.1/../../../../arm-eabi/lib/thumb\libg.a(lib_a-strncmp.o)
 .ARM.attributes
                0x00001404       0x30 c:/ndsdev/devkitpro/devkitarm/bin/../lib/gcc/arm-eabi/4.5.1/../../../../arm-eabi/lib/thumb\libg.a(lib_a-strncpy.o)
 .ARM.attributes
                0x00001434       0x30 c:/ndsdev/devkitpro/devkitarm/bin/../lib/gcc/arm-eabi/4.5.1/../../../../arm-eabi/lib/thumb\libg.a(lib_a-strtol.o)
 .ARM.attributes
                0x00001464       0x30 c:/ndsdev/devkitpro/devkitarm/bin/../lib/gcc/arm-eabi/4.5.1/../../../../arm-eabi/lib/thumb\libg.a(lib_a-sysstat.o)
 .ARM.attributes
                0x00001494       0x30 c:/ndsdev/devkitpro/devkitarm/bin/../lib/gcc/arm-eabi/4.5.1/../../../../arm-eabi/lib/thumb\libg.a(lib_a-time.o)
 .ARM.attributes
                0x000014c4       0x30 c:/ndsdev/devkitpro/devkitarm/bin/../lib/gcc/arm-eabi/4.5.1/../../../../arm-eabi/lib/thumb\libg.a(lib_a-tzlock.o)
 .ARM.attributes
                0x000014f4       0x30 c:/ndsdev/devkitpro/devkitarm/bin/../lib/gcc/arm-eabi/4.5.1/../../../../arm-eabi/lib/thumb\libg.a(lib_a-tzvars.o)
 .ARM.attributes
                0x00001524       0x30 c:/ndsdev/devkitpro/devkitarm/bin/../lib/gcc/arm-eabi/4.5.1/../../../../arm-eabi/lib/thumb\libg.a(lib_a-wctomb_r.o)
 .ARM.attributes
                0x00001554       0x30 c:/ndsdev/devkitpro/devkitarm/bin/../lib/gcc/arm-eabi/4.5.1/../../../../arm-eabi/lib/thumb\libg.a(lib_a-ctype_.o)
 .ARM.attributes
                0x00001584       0x30 c:/ndsdev/devkitpro/devkitarm/bin/../lib/gcc/arm-eabi/4.5.1/../../../../arm-eabi/lib/thumb\libg.a(lib_a-freer.o)
 .ARM.attributes
                0x000015b4       0x30 c:/ndsdev/devkitpro/devkitarm/bin/../lib/gcc/arm-eabi/4.5.1/../../../../arm-eabi/lib/thumb\libg.a(lib_a-getenv_r.o)
 .ARM.attributes
                0x000015e4       0x30 c:/ndsdev/devkitpro/devkitarm/bin/../lib/gcc/arm-eabi/4.5.1/../../../../arm-eabi/lib/thumb\libg.a(lib_a-gettzinfo.o)
 .ARM.attributes
                0x00001614       0x30 c:/ndsdev/devkitpro/devkitarm/bin/../lib/gcc/arm-eabi/4.5.1/../../../../arm-eabi/lib/thumb\libg.a(lib_a-environ.o)
 .ARM.attributes
                0x00001644       0x30 c:/ndsdev/devkitpro/devkitarm/bin/../lib/gcc/arm-eabi/4.5.1/../../../../arm-eabi/lib/thumb\libg.a(lib_a-envlock.o)
 .ARM.attributes
                0x00001674       0x30 c:/ndsdev/devkitpro/devkitarm/bin/../lib/gcc/arm-eabi/4.5.1/../../../../arm-eabi/lib/thumb\libsysbase.a(sbrk.o)
 .ARM.attributes
                0x000016a4       0x30 c:/ndsdev/devkitpro/devkitarm/bin/../lib/gcc/arm-eabi/4.5.1/../../../../arm-eabi/lib/thumb\libsysbase.a(stat.o)
 .ARM.attributes
                0x000016d4       0x30 c:/ndsdev/devkitpro/devkitarm/bin/../lib/gcc/arm-eabi/4.5.1/../../../../arm-eabi/lib/thumb\libsysbase.a(times.o)
 .ARM.attributes
                0x00001704       0x30 c:/ndsdev/devkitpro/devkitarm/bin/../lib/gcc/arm-eabi/4.5.1/../../../../arm-eabi/lib/thumb\libsysbase.a(malloc_vars.o)
 .ARM.attributes
                0x00001734       0x30 c:/ndsdev/devkitpro/devkitarm/bin/../lib/gcc/arm-eabi/4.5.1/../../../../arm-eabi/lib/thumb\libsysbase.a(build_argv.o)
 .ARM.attributes
                0x00001764       0x30 c:/ndsdev/devkitpro/devkitarm/bin/../lib/gcc/arm-eabi/4.5.1/../../../../arm-eabi/lib/thumb\libsysbase.a(syscall_support.o)
 .ARM.attributes
                0x00001794       0x30 c:/ndsdev/devkitpro/devkitarm/bin/../lib/gcc/arm-eabi/4.5.1/../../../../arm-eabi/lib/thumb\libsysbase.a(dirent.o)
 .ARM.attributes
                0x000017c4       0x30 c:/ndsdev/devkitpro/devkitarm/bin/../lib/gcc/arm-eabi/4.5.1/../../../../arm-eabi/lib/thumb\libsysbase.a(iosupport.o)
 .ARM.attributes
                0x000017f4       0x30 c:/ndsdev/devkitpro/devkitarm/bin/../lib/gcc/arm-eabi/4.5.1/../../../../arm-eabi/lib/thumb\libsysbase.a(dir.o)
 .ARM.attributes
                0x00001824       0x30 c:/ndsdev/devkitpro/devkitarm/bin/../lib/gcc/arm-eabi/4.5.1/../../../../arm-eabi/lib/thumb\libg.a(lib_a-errno.o)
 .ARM.attributes
                0x00001854       0x30 c:/ndsdev/devkitpro/devkitarm/bin/../lib/gcc/arm-eabi/4.5.1/../../../../arm-eabi/lib/thumb\libg.a(lib_a-strnlen.o)
 .ARM.attributes
                0x00001884       0x30 c:/ndsdev/devkitpro/devkitarm/bin/../lib/gcc/arm-eabi/4.5.1/thumb/crtend.o
 .ARM.attributes
                0x000018b4       0x20 c:/ndsdev/devkitpro/devkitarm/bin/../lib/gcc/arm-eabi/4.5.1/thumb/crtn.o

.comment        0x00000000       0x44 load address 0x0209c258
 *(.comment)
 .comment       0x00000000       0x22 c:/ndsdev/devkitpro/devkitarm/bin/../lib/gcc/arm-eabi/4.5.1/thumb/crtbegin.o
                                 0x23 (size before relaxing)
 .comment       0x00000000       0x23 Town.o
 .comment       0x00000000       0x23 bg_main_down.o
 .comment       0x00000000       0x23 bg_main_up.o
 .comment       0x00000000       0x23 bg_menu.o
 .comment       0x00000000       0x23 bg_stage1_init.o
 .comment       0x00000000       0x23 bg_stage2_init.o
 .comment       0x00000000       0x23 bg_stage3_init.o
 .comment       0x00000000       0x23 gameover.o
 .comment       0x00000000       0x23 stage1.o
 .comment       0x00000000       0x23 stage2.o
 .comment       0x00000000       0x23 crystal.o
 .comment       0x00000000       0x23 crystal_Ball.o
 .comment       0x00000000       0x23 cs_api.o
 .comment       0x00000000       0x23 game.o
 .comment       0x00000000       0x23 hero.o
 .comment       0x00000000       0x23 main.o
 .comment       0x00000000       0x23 menu.o
 .comment       0x00000000       0x23 monster.o
 .comment       0x00000000       0x23 princess.o
 .comment       0x00000000       0x23 water.o
 .comment       0x00000022       0x22 c:/ndsdev/devkitPro/PAlib/lib\libpa9.a(PA.o)
                                 0x23 (size before relaxing)
 .comment       0x00000000       0x23 c:/ndsdev/devkitPro/PAlib/lib\libpa9.a(PA_BgEasy.o)
 .comment       0x00000000       0x23 c:/ndsdev/devkitPro/PAlib/lib\libpa9.a(PA_BgLargeMap.o)
 .comment       0x00000000       0x23 c:/ndsdev/devkitPro/PAlib/lib\libpa9.a(PA_BgTiles.o)
 .comment       0x00000000       0x23 c:/ndsdev/devkitPro/PAlib/lib\libpa9.a(PA_Error.o)
 .comment       0x00000000       0x23 c:/ndsdev/devkitPro/PAlib/lib\libpa9.a(PA_Inits.o)
 .comment       0x00000000       0x23 c:/ndsdev/devkitPro/PAlib/lib\libpa9.a(PA_Interrupt.o)
 .comment       0x00000000       0x23 c:/ndsdev/devkitPro/PAlib/lib\libpa9.a(PA_Keys.o)
 .comment       0x00000000       0x23 c:/ndsdev/devkitPro/PAlib/lib\libpa9.a(PA_Math.o)
 .comment       0x00000000       0x23 c:/ndsdev/devkitPro/PAlib/lib\libpa9.a(PA_NewBg.o)
 .comment       0x00000000       0x23 c:/ndsdev/devkitPro/PAlib/lib\libpa9.a(PA_Palette.o)
 .comment       0x00000000       0x23 c:/ndsdev/devkitPro/PAlib/lib\libpa9.a(PA_RTC.o)
 .comment       0x00000000       0x23 c:/ndsdev/devkitPro/PAlib/lib\libpa9.a(PA_Reco.o)
 .comment       0x00000000       0x23 c:/ndsdev/devkitPro/PAlib/lib\libpa9.a(PA_Sprite.o)
 .comment       0x00000000       0x23 c:/ndsdev/devkitPro/PAlib/lib\libpa9.a(PA_SpriteAnim.o)
 .comment       0x00000000       0x23 c:/ndsdev/devkitPro/PAlib/lib\libpa9.a(PA_Stuff.o)
 .comment       0x00000000       0x23 c:/ndsdev/devkitPro/PAlib/lib\libpa9.a(PA_Text.o)
 .comment       0x00000000       0x23 c:/ndsdev/devkitPro/PAlib/lib\libpa9.a(PA_Text8bit.o)
 .comment       0x00000000       0x23 c:/ndsdev/devkitPro/PAlib/lib\libpa9.a(PA_TextBits.o)
 .comment       0x00000000       0x23 c:/ndsdev/devkitPro/PAlib/lib\libpa9.a(PA_TiledFont.o)
 .comment       0x00000000       0x23 c:/ndsdev/devkitPro/PAlib/lib\libpa9.a(PA_BmpFont0.o)
 .comment       0x00000000       0x23 c:/ndsdev/devkitPro/PAlib/lib\libpa9.a(PA_BmpFont1.o)
 .comment       0x00000000       0x23 c:/ndsdev/devkitPro/PAlib/lib\libpa9.a(PA_BmpFont2.o)
 .comment       0x00000000       0x23 c:/ndsdev/devkitPro/PAlib/lib\libpa9.a(PA_BmpFont3.o)
 .comment       0x00000000       0x23 c:/ndsdev/devkitPro/PAlib/lib\libpa9.a(PA_BmpFont4.o)
 .comment       0x00000000       0x23 c:/ndsdev/devkitPro/PAlib/lib\libpa9.a(PA_16c.o)
 .comment       0x00000000       0x23 c:/ndsdev/devkitPro/PAlib/lib\libpa9.a(PA_BgRot.o)
 .comment       0x00000000       0x23 c:/ndsdev/devkitPro/PAlib/lib\libpa9.a(PA_Draw.o)
 .comment       0x00000000       0x23 c:/ndsdev/devkitPro/PAlib/lib\libpa9.a(PA_Fifo.o)
 .comment       0x00000000       0x23 c:/ndsdev/devkitPro/PAlib/lib\libpa9.a(PA_Keyboard.o)
 .comment       0x00000000       0x23 c:/ndsdev/devkitPro/PAlib/lib\libpa9.a(PA_PaletteEx.o)
 .comment       0x00000000       0x23 c:/ndsdev/devkitPro/PAlib/lib\libpa9.a(keyboard.map.o)
 .comment       0x00000000       0x23 c:/ndsdev/devkitPro/PAlib/lib\libpa9.a(keyboard.pal.o)
 .comment       0x00000000       0x23 c:/ndsdev/devkitPro/PAlib/lib\libpa9.a(keyboard.raw.o)
 .comment       0x00000000       0x23 c:/ndsdev/devkitPro/libnds/lib\libnds9.a(keys.o)
 .comment       0x00000000       0x23 c:/ndsdev/devkitPro/libnds/lib\libnds9.a(system.o)
 .comment       0x00000000       0x23 c:/ndsdev/devkitPro/libnds/lib\libnds9.a(touch.o)
 .comment       0x00000000       0x23 c:/ndsdev/devkitPro/libnds/lib\libnds9.a(video.o)
 .comment       0x00000000       0x23 c:/ndsdev/devkitPro/libnds/lib\libnds9.a(initSystem.o)
 .comment       0x00000000       0x23 c:/ndsdev/devkitPro/libnds/lib\libnds9.a(fifosystem.o)
 .comment       0x00000000       0x23 c:/ndsdev/devkitPro/libnds/lib\libnds9.a(interrupts.o)
 .comment       0x00000000       0x23 c:/ndsdev/devkitPro/libnds/lib\libnds9.a(libnds_exit.o)
 .comment       0x00000000       0x23 c:/ndsdev/devkitpro/devkitarm/bin/../lib/gcc/arm-eabi/4.5.1/thumb\libgcc.a(_muldi3.o)
 .comment       0x00000000       0x23 c:/ndsdev/devkitpro/devkitarm/bin/../lib/gcc/arm-eabi/4.5.1/../../../../arm-eabi/lib/thumb\libg.a(lib_a-gmtime.o)
 .comment       0x00000000       0x23 c:/ndsdev/devkitpro/devkitarm/bin/../lib/gcc/arm-eabi/4.5.1/../../../../arm-eabi/lib/thumb\libg.a(lib_a-gmtime_r.o)
 .comment       0x00000000       0x23 c:/ndsdev/devkitpro/devkitarm/bin/../lib/gcc/arm-eabi/4.5.1/../../../../arm-eabi/lib/thumb\libg.a(lib_a-impure.o)
 .comment       0x00000000       0x23 c:/ndsdev/devkitpro/devkitarm/bin/../lib/gcc/arm-eabi/4.5.1/../../../../arm-eabi/lib/thumb\libg.a(lib_a-init.o)
 .comment       0x00000000       0x23 c:/ndsdev/devkitpro/devkitarm/bin/../lib/gcc/arm-eabi/4.5.1/../../../../arm-eabi/lib/thumb\libg.a(lib_a-locale.o)
 .comment       0x00000000       0x23 c:/ndsdev/devkitpro/devkitarm/bin/../lib/gcc/arm-eabi/4.5.1/../../../../arm-eabi/lib/thumb\libg.a(lib_a-malloc.o)
 .comment       0x00000000       0x23 c:/ndsdev/devkitpro/devkitarm/bin/../lib/gcc/arm-eabi/4.5.1/../../../../arm-eabi/lib/thumb\libg.a(lib_a-mallocr.o)
 .comment       0x00000000       0x23 c:/ndsdev/devkitpro/devkitarm/bin/../lib/gcc/arm-eabi/4.5.1/../../../../arm-eabi/lib/thumb\libg.a(lib_a-mbtowc_r.o)
 .comment       0x00000000       0x23 c:/ndsdev/devkitpro/devkitarm/bin/../lib/gcc/arm-eabi/4.5.1/../../../../arm-eabi/lib/thumb\libg.a(lib_a-memcpy.o)
 .comment       0x00000000       0x23 c:/ndsdev/devkitpro/devkitarm/bin/../lib/gcc/arm-eabi/4.5.1/../../../../arm-eabi/lib/thumb\libg.a(lib_a-mktm_r.o)
 .comment       0x00000000       0x23 c:/ndsdev/devkitpro/devkitarm/bin/../lib/gcc/arm-eabi/4.5.1/../../../../arm-eabi/lib/thumb\libg.a(lib_a-mlock.o)
 .comment       0x00000000       0x23 c:/ndsdev/devkitpro/devkitarm/bin/../lib/gcc/arm-eabi/4.5.1/../../../../arm-eabi/lib/thumb\libg.a(lib_a-strcasecmp.o)
 .comment       0x00000000       0x23 c:/ndsdev/devkitpro/devkitarm/bin/../lib/gcc/arm-eabi/4.5.1/../../../../arm-eabi/lib/thumb\libg.a(lib_a-strcat.o)
 .comment       0x00000000       0x23 c:/ndsdev/devkitpro/devkitarm/bin/../lib/gcc/arm-eabi/4.5.1/../../../../arm-eabi/lib/thumb\libg.a(lib_a-strchr.o)
 .comment       0x00000000       0x23 c:/ndsdev/devkitpro/devkitarm/bin/../lib/gcc/arm-eabi/4.5.1/../../../../arm-eabi/lib/thumb\libg.a(lib_a-strcmp.o)
 .comment       0x00000000       0x23 c:/ndsdev/devkitpro/devkitarm/bin/../lib/gcc/arm-eabi/4.5.1/../../../../arm-eabi/lib/thumb\libg.a(lib_a-strcpy.o)
 .comment       0x00000000       0x23 c:/ndsdev/devkitpro/devkitarm/bin/../lib/gcc/arm-eabi/4.5.1/../../../../arm-eabi/lib/thumb\libg.a(lib_a-strlcpy.o)
 .comment       0x00000000       0x23 c:/ndsdev/devkitpro/devkitarm/bin/../lib/gcc/arm-eabi/4.5.1/../../../../arm-eabi/lib/thumb\libg.a(lib_a-strlen.o)
 .comment       0x00000000       0x23 c:/ndsdev/devkitpro/devkitarm/bin/../lib/gcc/arm-eabi/4.5.1/../../../../arm-eabi/lib/thumb\libg.a(lib_a-strncasecmp.o)
 .comment       0x00000000       0x23 c:/ndsdev/devkitpro/devkitarm/bin/../lib/gcc/arm-eabi/4.5.1/../../../../arm-eabi/lib/thumb\libg.a(lib_a-strncmp.o)
 .comment       0x00000000       0x23 c:/ndsdev/devkitpro/devkitarm/bin/../lib/gcc/arm-eabi/4.5.1/../../../../arm-eabi/lib/thumb\libg.a(lib_a-strncpy.o)
 .comment       0x00000000       0x23 c:/ndsdev/devkitpro/devkitarm/bin/../lib/gcc/arm-eabi/4.5.1/../../../../arm-eabi/lib/thumb\libg.a(lib_a-strtol.o)
 .comment       0x00000000       0x23 c:/ndsdev/devkitpro/devkitarm/bin/../lib/gcc/arm-eabi/4.5.1/../../../../arm-eabi/lib/thumb\libg.a(lib_a-sysstat.o)
 .comment       0x00000000       0x23 c:/ndsdev/devkitpro/devkitarm/bin/../lib/gcc/arm-eabi/4.5.1/../../../../arm-eabi/lib/thumb\libg.a(lib_a-time.o)
 .comment       0x00000000       0x23 c:/ndsdev/devkitpro/devkitarm/bin/../lib/gcc/arm-eabi/4.5.1/../../../../arm-eabi/lib/thumb\libg.a(lib_a-tzlock.o)
 .comment       0x00000000       0x23 c:/ndsdev/devkitpro/devkitarm/bin/../lib/gcc/arm-eabi/4.5.1/../../../../arm-eabi/lib/thumb\libg.a(lib_a-tzvars.o)
 .comment       0x00000000       0x23 c:/ndsdev/devkitpro/devkitarm/bin/../lib/gcc/arm-eabi/4.5.1/../../../../arm-eabi/lib/thumb\libg.a(lib_a-wctomb_r.o)
 .comment       0x00000000       0x23 c:/ndsdev/devkitpro/devkitarm/bin/../lib/gcc/arm-eabi/4.5.1/../../../../arm-eabi/lib/thumb\libg.a(lib_a-ctype_.o)
 .comment       0x00000000       0x23 c:/ndsdev/devkitpro/devkitarm/bin/../lib/gcc/arm-eabi/4.5.1/../../../../arm-eabi/lib/thumb\libg.a(lib_a-freer.o)
 .comment       0x00000000       0x23 c:/ndsdev/devkitpro/devkitarm/bin/../lib/gcc/arm-eabi/4.5.1/../../../../arm-eabi/lib/thumb\libg.a(lib_a-getenv_r.o)
 .comment       0x00000000       0x23 c:/ndsdev/devkitpro/devkitarm/bin/../lib/gcc/arm-eabi/4.5.1/../../../../arm-eabi/lib/thumb\libg.a(lib_a-gettzinfo.o)
 .comment       0x00000000       0x23 c:/ndsdev/devkitpro/devkitarm/bin/../lib/gcc/arm-eabi/4.5.1/../../../../arm-eabi/lib/thumb\libg.a(lib_a-environ.o)
 .comment       0x00000000       0x23 c:/ndsdev/devkitpro/devkitarm/bin/../lib/gcc/arm-eabi/4.5.1/../../../../arm-eabi/lib/thumb\libg.a(lib_a-envlock.o)
 .comment       0x00000000       0x23 c:/ndsdev/devkitpro/devkitarm/bin/../lib/gcc/arm-eabi/4.5.1/../../../../arm-eabi/lib/thumb\libsysbase.a(sbrk.o)
 .comment       0x00000000       0x23 c:/ndsdev/devkitpro/devkitarm/bin/../lib/gcc/arm-eabi/4.5.1/../../../../arm-eabi/lib/thumb\libsysbase.a(stat.o)
 .comment       0x00000000       0x23 c:/ndsdev/devkitpro/devkitarm/bin/../lib/gcc/arm-eabi/4.5.1/../../../../arm-eabi/lib/thumb\libsysbase.a(times.o)
 .comment       0x00000000       0x23 c:/ndsdev/devkitpro/devkitarm/bin/../lib/gcc/arm-eabi/4.5.1/../../../../arm-eabi/lib/thumb\libsysbase.a(malloc_vars.o)
 .comment       0x00000000       0x23 c:/ndsdev/devkitpro/devkitarm/bin/../lib/gcc/arm-eabi/4.5.1/../../../../arm-eabi/lib/thumb\libsysbase.a(build_argv.o)
 .comment       0x00000000       0x23 c:/ndsdev/devkitpro/devkitarm/bin/../lib/gcc/arm-eabi/4.5.1/../../../../arm-eabi/lib/thumb\libsysbase.a(syscall_support.o)
 .comment       0x00000000       0x23 c:/ndsdev/devkitpro/devkitarm/bin/../lib/gcc/arm-eabi/4.5.1/../../../../arm-eabi/lib/thumb\libsysbase.a(dirent.o)
 .comment       0x00000000       0x23 c:/ndsdev/devkitpro/devkitarm/bin/../lib/gcc/arm-eabi/4.5.1/../../../../arm-eabi/lib/thumb\libsysbase.a(iosupport.o)
 .comment       0x00000000       0x23 c:/ndsdev/devkitpro/devkitarm/bin/../lib/gcc/arm-eabi/4.5.1/../../../../arm-eabi/lib/thumb\libsysbase.a(dir.o)
 .comment       0x00000000       0x23 c:/ndsdev/devkitpro/devkitarm/bin/../lib/gcc/arm-eabi/4.5.1/../../../../arm-eabi/lib/thumb\libg.a(lib_a-errno.o)
 .comment       0x00000000       0x23 c:/ndsdev/devkitpro/devkitarm/bin/../lib/gcc/arm-eabi/4.5.1/../../../../arm-eabi/lib/thumb\libg.a(lib_a-strnlen.o)
 .comment       0x00000000       0x23 c:/ndsdev/devkitpro/devkitarm/bin/../lib/gcc/arm-eabi/4.5.1/thumb/crtend.o

.debug
 *(.debug)

.line
 *(.line)

.debug_srcinfo
 *(.debug_srcinfo)

.debug_sfnames
 *(.debug_sfnames)

.debug_aranges  0x00000000      0x600 load address 0x0209c258
 *(.debug_aranges)
 .debug_aranges
                0x00000000       0x20 crystal.o
 .debug_aranges
                0x00000020       0x20 crystal_Ball.o
 .debug_aranges
                0x00000040       0x20 cs_api.o
 .debug_aranges
                0x00000060       0x20 game.o
 .debug_aranges
                0x00000080       0x20 hero.o
 .debug_aranges
                0x000000a0       0x20 main.o
 .debug_aranges
                0x000000c0       0x20 menu.o
 .debug_aranges
                0x000000e0       0x20 monster.o
 .debug_aranges
                0x00000100       0x20 princess.o
 .debug_aranges
                0x00000120       0x20 water.o
 .debug_aranges
                0x00000140       0x20 c:/ndsdev/devkitPro/PAlib/lib\libpa9.a(PA.o)
 .debug_aranges
                0x00000160       0x20 c:/ndsdev/devkitPro/PAlib/lib\libpa9.a(PA_BgEasy.o)
 .debug_aranges
                0x00000180       0x20 c:/ndsdev/devkitPro/PAlib/lib\libpa9.a(PA_BgLargeMap.o)
 .debug_aranges
                0x000001a0       0x20 c:/ndsdev/devkitPro/PAlib/lib\libpa9.a(PA_BgTiles.o)
 .debug_aranges
                0x000001c0       0x20 c:/ndsdev/devkitPro/PAlib/lib\libpa9.a(PA_Error.o)
 .debug_aranges
                0x000001e0       0x20 c:/ndsdev/devkitPro/PAlib/lib\libpa9.a(PA_Inits.o)
 .debug_aranges
                0x00000200       0x20 c:/ndsdev/devkitPro/PAlib/lib\libpa9.a(PA_Interrupt.o)
 .debug_aranges
                0x00000220       0x20 c:/ndsdev/devkitPro/PAlib/lib\libpa9.a(PA_Keys.o)
 .debug_aranges
                0x00000240       0x20 c:/ndsdev/devkitPro/PAlib/lib\libpa9.a(PA_Math.o)
 .debug_aranges
                0x00000260       0x20 c:/ndsdev/devkitPro/PAlib/lib\libpa9.a(PA_NewBg.o)
 .debug_aranges
                0x00000280       0x20 c:/ndsdev/devkitPro/PAlib/lib\libpa9.a(PA_Palette.o)
 .debug_aranges
                0x000002a0       0x20 c:/ndsdev/devkitPro/PAlib/lib\libpa9.a(PA_RTC.o)
 .debug_aranges
                0x000002c0       0x20 c:/ndsdev/devkitPro/PAlib/lib\libpa9.a(PA_Reco.o)
 .debug_aranges
                0x000002e0       0x20 c:/ndsdev/devkitPro/PAlib/lib\libpa9.a(PA_Sprite.o)
 .debug_aranges
                0x00000300       0x20 c:/ndsdev/devkitPro/PAlib/lib\libpa9.a(PA_SpriteAnim.o)
 .debug_aranges
                0x00000320       0x20 c:/ndsdev/devkitPro/PAlib/lib\libpa9.a(PA_Stuff.o)
 .debug_aranges
                0x00000340       0x20 c:/ndsdev/devkitPro/PAlib/lib\libpa9.a(PA_Text.o)
 .debug_aranges
                0x00000360       0x20 c:/ndsdev/devkitPro/PAlib/lib\libpa9.a(PA_Text8bit.o)
 .debug_aranges
                0x00000380       0x20 c:/ndsdev/devkitPro/PAlib/lib\libpa9.a(PA_TextBits.o)
 .debug_aranges
                0x000003a0       0x20 c:/ndsdev/devkitPro/PAlib/lib\libpa9.a(PA_16c.o)
 .debug_aranges
                0x000003c0       0x20 c:/ndsdev/devkitPro/PAlib/lib\libpa9.a(PA_BgRot.o)
 .debug_aranges
                0x000003e0       0x20 c:/ndsdev/devkitPro/PAlib/lib\libpa9.a(PA_Draw.o)
 .debug_aranges
                0x00000400       0x20 c:/ndsdev/devkitPro/PAlib/lib\libpa9.a(PA_Fifo.o)
 .debug_aranges
                0x00000420       0x20 c:/ndsdev/devkitPro/PAlib/lib\libpa9.a(PA_Keyboard.o)
 .debug_aranges
                0x00000440       0x20 c:/ndsdev/devkitPro/PAlib/lib\libpa9.a(PA_PaletteEx.o)
 .debug_aranges
                0x00000460       0x20 c:/ndsdev/devkitPro/libnds/lib\libnds9.a(keys.o)
 .debug_aranges
                0x00000480       0x20 c:/ndsdev/devkitPro/libnds/lib\libnds9.a(system.o)
 .debug_aranges
                0x000004a0       0x20 c:/ndsdev/devkitPro/libnds/lib\libnds9.a(touch.o)
 .debug_aranges
                0x000004c0       0x20 c:/ndsdev/devkitPro/libnds/lib\libnds9.a(video.o)
 .debug_aranges
                0x000004e0       0x20 c:/ndsdev/devkitPro/libnds/lib\libnds9.a(initSystem.o)
 .debug_aranges
                0x00000500       0x20 c:/ndsdev/devkitPro/libnds/lib\libnds9.a(fifosystem.o)
 .debug_aranges
                0x00000520       0x20 c:/ndsdev/devkitPro/libnds/lib\libnds9.a(interrupts.o)
 .debug_aranges
                0x00000540       0x20 c:/ndsdev/devkitPro/libnds/lib\libnds9.a(libnds_exit.o)
 .debug_aranges
                0x00000560       0x20 c:/ndsdev/devkitPro/libnds/lib\libnds9.a(dcache.o)
 .debug_aranges
                0x00000580       0x20 c:/ndsdev/devkitPro/libnds/lib\libnds9.a(mpu_setup.o)
 .debug_aranges
                0x000005a0       0x20 c:/ndsdev/devkitPro/libnds/lib\libnds9.a(biosCalls.o)
 .debug_aranges
                0x000005c0       0x20 c:/ndsdev/devkitPro/libnds/lib\libnds9.a(interruptDispatcher.o)
 .debug_aranges
                0x000005e0       0x20 c:/ndsdev/devkitPro/libnds/lib\libnds9.a(swiSoftReset.o)

.debug_pubnames
                0x00000000     0x1ad2 load address 0x0209c258
 *(.debug_pubnames)
 .debug_pubnames
                0x00000000       0x1b Town.o
 .debug_pubnames
                0x0000001b       0x23 bg_main_down.o
 .debug_pubnames
                0x0000003e       0x21 bg_main_up.o
 .debug_pubnames
                0x0000005f       0x1e bg_menu.o
 .debug_pubnames
                0x0000007d       0x25 bg_stage1_init.o
 .debug_pubnames
                0x000000a2       0x25 bg_stage2_init.o
 .debug_pubnames
                0x000000c7       0x25 bg_stage3_init.o
 .debug_pubnames
                0x000000ec       0x1f gameover.o
 .debug_pubnames
                0x0000010b       0x1d stage1.o
 .debug_pubnames
                0x00000128       0x1d stage2.o
 .debug_pubnames
                0x00000145       0x7a crystal.o
 .debug_pubnames
                0x000001bf       0xa7 crystal_Ball.o
 .debug_pubnames
                0x00000266       0xe4 cs_api.o
 .debug_pubnames
                0x0000034a       0x6d game.o
 .debug_pubnames
                0x000003b7       0x40 hero.o
 .debug_pubnames
                0x000003f7       0x1b main.o
 .debug_pubnames
                0x00000412       0x2c menu.o
 .debug_pubnames
                0x0000043e       0x82 monster.o
 .debug_pubnames
                0x000004c0       0x6c princess.o
 .debug_pubnames
                0x0000052c       0x70 water.o
 .debug_pubnames
                0x0000059c       0xfe c:/ndsdev/devkitPro/PAlib/lib\libpa9.a(PA.o)
 .debug_pubnames
                0x0000069a       0x68 c:/ndsdev/devkitPro/PAlib/lib\libpa9.a(PA_BgEasy.o)
 .debug_pubnames
                0x00000702       0xdf c:/ndsdev/devkitPro/PAlib/lib\libpa9.a(PA_BgLargeMap.o)
 .debug_pubnames
                0x000007e1      0x12e c:/ndsdev/devkitPro/PAlib/lib\libpa9.a(PA_BgTiles.o)
 .debug_pubnames
                0x0000090f       0x2e c:/ndsdev/devkitPro/PAlib/lib\libpa9.a(PA_Error.o)
 .debug_pubnames
                0x0000093d       0x39 c:/ndsdev/devkitPro/PAlib/lib\libpa9.a(PA_Inits.o)
 .debug_pubnames
                0x00000976       0xa4 c:/ndsdev/devkitPro/PAlib/lib\libpa9.a(PA_Interrupt.o)
 .debug_pubnames
                0x00000a1a       0x47 c:/ndsdev/devkitPro/PAlib/lib\libpa9.a(PA_Keys.o)
 .debug_pubnames
                0x00000a61       0x40 c:/ndsdev/devkitPro/PAlib/lib\libpa9.a(PA_Math.o)
 .debug_pubnames
                0x00000aa1       0x73 c:/ndsdev/devkitPro/PAlib/lib\libpa9.a(PA_NewBg.o)
 .debug_pubnames
                0x00000b14       0x76 c:/ndsdev/devkitPro/PAlib/lib\libpa9.a(PA_Palette.o)
 .debug_pubnames
                0x00000b8a       0x54 c:/ndsdev/devkitPro/PAlib/lib\libpa9.a(PA_RTC.o)
 .debug_pubnames
                0x00000bde       0xd1 c:/ndsdev/devkitPro/PAlib/lib\libpa9.a(PA_Reco.o)
 .debug_pubnames
                0x00000caf      0x1e9 c:/ndsdev/devkitPro/PAlib/lib\libpa9.a(PA_Sprite.o)
 .debug_pubnames
                0x00000e98       0x44 c:/ndsdev/devkitPro/PAlib/lib\libpa9.a(PA_SpriteAnim.o)
 .debug_pubnames
                0x00000edc       0x34 c:/ndsdev/devkitPro/PAlib/lib\libpa9.a(PA_Stuff.o)
 .debug_pubnames
                0x00000f10      0x11c c:/ndsdev/devkitPro/PAlib/lib\libpa9.a(PA_Text.o)
 .debug_pubnames
                0x0000102c       0xb4 c:/ndsdev/devkitPro/PAlib/lib\libpa9.a(PA_Text8bit.o)
 .debug_pubnames
                0x000010e0       0xc4 c:/ndsdev/devkitPro/PAlib/lib\libpa9.a(PA_TextBits.o)
 .debug_pubnames
                0x000011a4       0x23 c:/ndsdev/devkitPro/PAlib/lib\libpa9.a(PA_TiledFont.o)
 .debug_pubnames
                0x000011c7       0x22 c:/ndsdev/devkitPro/PAlib/lib\libpa9.a(PA_BmpFont0.o)
 .debug_pubnames
                0x000011e9       0x22 c:/ndsdev/devkitPro/PAlib/lib\libpa9.a(PA_BmpFont1.o)
 .debug_pubnames
                0x0000120b       0x22 c:/ndsdev/devkitPro/PAlib/lib\libpa9.a(PA_BmpFont2.o)
 .debug_pubnames
                0x0000122d       0x22 c:/ndsdev/devkitPro/PAlib/lib\libpa9.a(PA_BmpFont3.o)
 .debug_pubnames
                0x0000124f       0x22 c:/ndsdev/devkitPro/PAlib/lib\libpa9.a(PA_BmpFont4.o)
 .debug_pubnames
                0x00001271       0xb0 c:/ndsdev/devkitPro/PAlib/lib\libpa9.a(PA_16c.o)
 .debug_pubnames
                0x00001321       0x55 c:/ndsdev/devkitPro/PAlib/lib\libpa9.a(PA_BgRot.o)
 .debug_pubnames
                0x00001376       0xa9 c:/ndsdev/devkitPro/PAlib/lib\libpa9.a(PA_Draw.o)
 .debug_pubnames
                0x0000141f       0x38 c:/ndsdev/devkitPro/PAlib/lib\libpa9.a(PA_Fifo.o)
 .debug_pubnames
                0x00001457       0xc0 c:/ndsdev/devkitPro/PAlib/lib\libpa9.a(PA_Keyboard.o)
 .debug_pubnames
                0x00001517       0x88 c:/ndsdev/devkitPro/PAlib/lib\libpa9.a(PA_PaletteEx.o)
 .debug_pubnames
                0x0000159f       0x23 c:/ndsdev/devkitPro/PAlib/lib\libpa9.a(keyboard.map.o)
 .debug_pubnames
                0x000015c2       0x27 c:/ndsdev/devkitPro/PAlib/lib\libpa9.a(keyboard.pal.o)
 .debug_pubnames
                0x000015e9       0x25 c:/ndsdev/devkitPro/PAlib/lib\libpa9.a(keyboard.raw.o)
 .debug_pubnames
                0x0000160e       0x79 c:/ndsdev/devkitPro/libnds/lib\libnds9.a(keys.o)
 .debug_pubnames
                0x00001687       0x87 c:/ndsdev/devkitPro/libnds/lib\libnds9.a(system.o)
 .debug_pubnames
                0x0000170e       0x30 c:/ndsdev/devkitPro/libnds/lib\libnds9.a(touch.o)
 .debug_pubnames
                0x0000173e       0x62 c:/ndsdev/devkitPro/libnds/lib\libnds9.a(video.o)
 .debug_pubnames
                0x000017a0       0x21 c:/ndsdev/devkitPro/libnds/lib\libnds9.a(initSystem.o)
 .debug_pubnames
                0x000017c1      0x259 c:/ndsdev/devkitPro/libnds/lib\libnds9.a(fifosystem.o)
 .debug_pubnames
                0x00001a1a       0x80 c:/ndsdev/devkitPro/libnds/lib\libnds9.a(interrupts.o)
 .debug_pubnames
                0x00001a9a       0x38 c:/ndsdev/devkitPro/libnds/lib\libnds9.a(libnds_exit.o)

.debug_info     0x00000000    0x51bdc load address 0x0209c258
 *(.debug_info)
 .debug_info    0x00000000      0x1c6 Town.o
 .debug_info    0x000001c6      0x1c6 bg_main_down.o
 .debug_info    0x0000038c      0x1c6 bg_main_up.o
 .debug_info    0x00000552      0x1c6 bg_menu.o
 .debug_info    0x00000718      0x1c6 bg_stage1_init.o
 .debug_info    0x000008de      0x1c6 bg_stage2_init.o
 .debug_info    0x00000aa4      0x1c6 bg_stage3_init.o
 .debug_info    0x00000c6a      0x1c6 gameover.o
 .debug_info    0x00000e30      0x1c6 stage1.o
 .debug_info    0x00000ff6      0x1c6 stage2.o
 .debug_info    0x000011bc     0x1cbf crystal.o
 .debug_info    0x00002e7b     0x1d14 crystal_Ball.o
 .debug_info    0x00004b8f     0x280a cs_api.o
 .debug_info    0x00007399     0x22da game.o
 .debug_info    0x00009673     0x1da6 hero.o
 .debug_info    0x0000b419     0x1b99 main.o
 .debug_info    0x0000cfb2     0x1ac1 menu.o
 .debug_info    0x0000ea73     0x1d54 monster.o
 .debug_info    0x000107c7     0x1c8d princess.o
 .debug_info    0x00012454     0x1d41 water.o
 .debug_info    0x00014195     0x2481 c:/ndsdev/devkitPro/PAlib/lib\libpa9.a(PA.o)
 .debug_info    0x00016616     0x240e c:/ndsdev/devkitPro/PAlib/lib\libpa9.a(PA_BgEasy.o)
 .debug_info    0x00018a24     0x2d35 c:/ndsdev/devkitPro/PAlib/lib\libpa9.a(PA_BgLargeMap.o)
 .debug_info    0x0001b759     0x25f9 c:/ndsdev/devkitPro/PAlib/lib\libpa9.a(PA_BgTiles.o)
 .debug_info    0x0001dd52     0x1ec0 c:/ndsdev/devkitPro/PAlib/lib\libpa9.a(PA_Error.o)
 .debug_info    0x0001fc12     0x27ab c:/ndsdev/devkitPro/PAlib/lib\libpa9.a(PA_Inits.o)
 .debug_info    0x000223bd     0x20b0 c:/ndsdev/devkitPro/PAlib/lib\libpa9.a(PA_Interrupt.o)
 .debug_info    0x0002446d     0x2131 c:/ndsdev/devkitPro/PAlib/lib\libpa9.a(PA_Keys.o)
 .debug_info    0x0002659e     0x20be c:/ndsdev/devkitPro/PAlib/lib\libpa9.a(PA_Math.o)
 .debug_info    0x0002865c     0x28a8 c:/ndsdev/devkitPro/PAlib/lib\libpa9.a(PA_NewBg.o)
 .debug_info    0x0002af04     0x2476 c:/ndsdev/devkitPro/PAlib/lib\libpa9.a(PA_Palette.o)
 .debug_info    0x0002d37a     0x22dd c:/ndsdev/devkitPro/PAlib/lib\libpa9.a(PA_RTC.o)
 .debug_info    0x0002f657     0x2417 c:/ndsdev/devkitPro/PAlib/lib\libpa9.a(PA_Reco.o)
 .debug_info    0x00031a6e     0x275a c:/ndsdev/devkitPro/PAlib/lib\libpa9.a(PA_Sprite.o)
 .debug_info    0x000341c8     0x218a c:/ndsdev/devkitPro/PAlib/lib\libpa9.a(PA_SpriteAnim.o)
 .debug_info    0x00036352     0x2186 c:/ndsdev/devkitPro/PAlib/lib\libpa9.a(PA_Stuff.o)
 .debug_info    0x000384d8     0x24a8 c:/ndsdev/devkitPro/PAlib/lib\libpa9.a(PA_Text.o)
 .debug_info    0x0003a980     0x349e c:/ndsdev/devkitPro/PAlib/lib\libpa9.a(PA_Text8bit.o)
 .debug_info    0x0003de1e     0x2430 c:/ndsdev/devkitPro/PAlib/lib\libpa9.a(PA_TextBits.o)
 .debug_info    0x0004024e      0x1c6 c:/ndsdev/devkitPro/PAlib/lib\libpa9.a(PA_TiledFont.o)
 .debug_info    0x00040414      0x1c6 c:/ndsdev/devkitPro/PAlib/lib\libpa9.a(PA_BmpFont0.o)
 .debug_info    0x000405da      0x1c6 c:/ndsdev/devkitPro/PAlib/lib\libpa9.a(PA_BmpFont1.o)
 .debug_info    0x000407a0      0x1c6 c:/ndsdev/devkitPro/PAlib/lib\libpa9.a(PA_BmpFont2.o)
 .debug_info    0x00040966      0x1c6 c:/ndsdev/devkitPro/PAlib/lib\libpa9.a(PA_BmpFont3.o)
 .debug_info    0x00040b2c      0x1c6 c:/ndsdev/devkitPro/PAlib/lib\libpa9.a(PA_BmpFont4.o)
 .debug_info    0x00040cf2     0x2770 c:/ndsdev/devkitPro/PAlib/lib\libpa9.a(PA_16c.o)
 .debug_info    0x00043462     0x2051 c:/ndsdev/devkitPro/PAlib/lib\libpa9.a(PA_BgRot.o)
 .debug_info    0x000454b3     0x21fe c:/ndsdev/devkitPro/PAlib/lib\libpa9.a(PA_Draw.o)
 .debug_info    0x000476b1     0x20fa c:/ndsdev/devkitPro/PAlib/lib\libpa9.a(PA_Fifo.o)
 .debug_info    0x000497ab     0x24f4 c:/ndsdev/devkitPro/PAlib/lib\libpa9.a(PA_Keyboard.o)
 .debug_info    0x0004bc9f     0x2370 c:/ndsdev/devkitPro/PAlib/lib\libpa9.a(PA_PaletteEx.o)
 .debug_info    0x0004e00f       0x54 c:/ndsdev/devkitPro/PAlib/lib\libpa9.a(keyboard.map.o)
 .debug_info    0x0004e063       0x53 c:/ndsdev/devkitPro/PAlib/lib\libpa9.a(keyboard.pal.o)
 .debug_info    0x0004e0b6       0x54 c:/ndsdev/devkitPro/PAlib/lib\libpa9.a(keyboard.raw.o)
 .debug_info    0x0004e10a      0x3d0 c:/ndsdev/devkitPro/libnds/lib\libnds9.a(keys.o)
 .debug_info    0x0004e4da      0x6a8 c:/ndsdev/devkitPro/libnds/lib\libnds9.a(system.o)
 .debug_info    0x0004eb82      0x2c2 c:/ndsdev/devkitPro/libnds/lib\libnds9.a(touch.o)
 .debug_info    0x0004ee44      0x3d5 c:/ndsdev/devkitPro/libnds/lib\libnds9.a(video.o)
 .debug_info    0x0004f219      0xe19 c:/ndsdev/devkitPro/libnds/lib\libnds9.a(initSystem.o)
 .debug_info    0x00050032     0x10ca c:/ndsdev/devkitPro/libnds/lib\libnds9.a(fifosystem.o)
 .debug_info    0x000510fc      0x468 c:/ndsdev/devkitPro/libnds/lib\libnds9.a(interrupts.o)
 .debug_info    0x00051564      0x2a6 c:/ndsdev/devkitPro/libnds/lib\libnds9.a(libnds_exit.o)
 .debug_info    0x0005180a       0xbc c:/ndsdev/devkitPro/libnds/lib\libnds9.a(dcache.o)
 .debug_info    0x000518c6       0xc6 c:/ndsdev/devkitPro/libnds/lib\libnds9.a(mpu_setup.o)
 .debug_info    0x0005198c       0xc1 c:/ndsdev/devkitPro/libnds/lib\libnds9.a(biosCalls.o)
 .debug_info    0x00051a4d       0xcb c:/ndsdev/devkitPro/libnds/lib\libnds9.a(interruptDispatcher.o)
 .debug_info    0x00051b18       0xc4 c:/ndsdev/devkitPro/libnds/lib\libnds9.a(swiSoftReset.o)

.debug_abbrev   0x00000000     0x805f load address 0x0209c258
 *(.debug_abbrev)
 .debug_abbrev  0x00000000       0xcf Town.o
 .debug_abbrev  0x000000cf       0xcf bg_main_down.o
 .debug_abbrev  0x0000019e       0xcf bg_main_up.o
 .debug_abbrev  0x0000026d       0xcf bg_menu.o
 .debug_abbrev  0x0000033c       0xcf bg_stage1_init.o
 .debug_abbrev  0x0000040b       0xcf bg_stage2_init.o
 .debug_abbrev  0x000004da       0xcf bg_stage3_init.o
 .debug_abbrev  0x000005a9       0xcf gameover.o
 .debug_abbrev  0x00000678       0xcf stage1.o
 .debug_abbrev  0x00000747       0xcf stage2.o
 .debug_abbrev  0x00000816      0x32f crystal.o
 .debug_abbrev  0x00000b45      0x329 crystal_Ball.o
 .debug_abbrev  0x00000e6e      0x38b cs_api.o
 .debug_abbrev  0x000011f9      0x379 game.o
 .debug_abbrev  0x00001572      0x2c0 hero.o
 .debug_abbrev  0x00001832      0x229 main.o
 .debug_abbrev  0x00001a5b      0x236 menu.o
 .debug_abbrev  0x00001c91      0x355 monster.o
 .debug_abbrev  0x00001fe6      0x317 princess.o
 .debug_abbrev  0x000022fd      0x355 water.o
 .debug_abbrev  0x00002652      0x27d c:/ndsdev/devkitPro/PAlib/lib\libpa9.a(PA.o)
 .debug_abbrev  0x000028cf      0x325 c:/ndsdev/devkitPro/PAlib/lib\libpa9.a(PA_BgEasy.o)
 .debug_abbrev  0x00002bf4      0x340 c:/ndsdev/devkitPro/PAlib/lib\libpa9.a(PA_BgLargeMap.o)
 .debug_abbrev  0x00002f34      0x314 c:/ndsdev/devkitPro/PAlib/lib\libpa9.a(PA_BgTiles.o)
 .debug_abbrev  0x00003248      0x1e6 c:/ndsdev/devkitPro/PAlib/lib\libpa9.a(PA_Error.o)
 .debug_abbrev  0x0000342e      0x316 c:/ndsdev/devkitPro/PAlib/lib\libpa9.a(PA_Inits.o)
 .debug_abbrev  0x00003744      0x23f c:/ndsdev/devkitPro/PAlib/lib\libpa9.a(PA_Interrupt.o)
 .debug_abbrev  0x00003983      0x224 c:/ndsdev/devkitPro/PAlib/lib\libpa9.a(PA_Keys.o)
 .debug_abbrev  0x00003ba7      0x292 c:/ndsdev/devkitPro/PAlib/lib\libpa9.a(PA_Math.o)
 .debug_abbrev  0x00003e39      0x350 c:/ndsdev/devkitPro/PAlib/lib\libpa9.a(PA_NewBg.o)
 .debug_abbrev  0x00004189      0x2ba c:/ndsdev/devkitPro/PAlib/lib\libpa9.a(PA_Palette.o)
 .debug_abbrev  0x00004443      0x239 c:/ndsdev/devkitPro/PAlib/lib\libpa9.a(PA_RTC.o)
 .debug_abbrev  0x0000467c      0x30a c:/ndsdev/devkitPro/PAlib/lib\libpa9.a(PA_Reco.o)
 .debug_abbrev  0x00004986      0x3b1 c:/ndsdev/devkitPro/PAlib/lib\libpa9.a(PA_Sprite.o)
 .debug_abbrev  0x00004d37      0x2ca c:/ndsdev/devkitPro/PAlib/lib\libpa9.a(PA_SpriteAnim.o)
 .debug_abbrev  0x00005001      0x248 c:/ndsdev/devkitPro/PAlib/lib\libpa9.a(PA_Stuff.o)
 .debug_abbrev  0x00005249      0x363 c:/ndsdev/devkitPro/PAlib/lib\libpa9.a(PA_Text.o)
 .debug_abbrev  0x000055ac      0x34b c:/ndsdev/devkitPro/PAlib/lib\libpa9.a(PA_Text8bit.o)
 .debug_abbrev  0x000058f7      0x2b0 c:/ndsdev/devkitPro/PAlib/lib\libpa9.a(PA_TextBits.o)
 .debug_abbrev  0x00005ba7       0xcf c:/ndsdev/devkitPro/PAlib/lib\libpa9.a(PA_TiledFont.o)
 .debug_abbrev  0x00005c76       0xcf c:/ndsdev/devkitPro/PAlib/lib\libpa9.a(PA_BmpFont0.o)
 .debug_abbrev  0x00005d45       0xcf c:/ndsdev/devkitPro/PAlib/lib\libpa9.a(PA_BmpFont1.o)
 .debug_abbrev  0x00005e14       0xcf c:/ndsdev/devkitPro/PAlib/lib\libpa9.a(PA_BmpFont2.o)
 .debug_abbrev  0x00005ee3       0xcf c:/ndsdev/devkitPro/PAlib/lib\libpa9.a(PA_BmpFont3.o)
 .debug_abbrev  0x00005fb2       0xcf c:/ndsdev/devkitPro/PAlib/lib\libpa9.a(PA_BmpFont4.o)
 .debug_abbrev  0x00006081      0x374 c:/ndsdev/devkitPro/PAlib/lib\libpa9.a(PA_16c.o)
 .debug_abbrev  0x000063f5      0x252 c:/ndsdev/devkitPro/PAlib/lib\libpa9.a(PA_BgRot.o)
 .debug_abbrev  0x00006647      0x270 c:/ndsdev/devkitPro/PAlib/lib\libpa9.a(PA_Draw.o)
 .debug_abbrev  0x000068b7      0x211 c:/ndsdev/devkitPro/PAlib/lib\libpa9.a(PA_Fifo.o)
 .debug_abbrev  0x00006ac8      0x33d c:/ndsdev/devkitPro/PAlib/lib\libpa9.a(PA_Keyboard.o)
 .debug_abbrev  0x00006e05      0x29b c:/ndsdev/devkitPro/PAlib/lib\libpa9.a(PA_PaletteEx.o)
 .debug_abbrev  0x000070a0       0x50 c:/ndsdev/devkitPro/PAlib/lib\libpa9.a(keyboard.map.o)
 .debug_abbrev  0x000070f0       0x50 c:/ndsdev/devkitPro/PAlib/lib\libpa9.a(keyboard.pal.o)
 .debug_abbrev  0x00007140       0x50 c:/ndsdev/devkitPro/PAlib/lib\libpa9.a(keyboard.raw.o)
 .debug_abbrev  0x00007190      0x176 c:/ndsdev/devkitPro/libnds/lib\libnds9.a(keys.o)
 .debug_abbrev  0x00007306      0x19a c:/ndsdev/devkitPro/libnds/lib\libnds9.a(system.o)
 .debug_abbrev  0x000074a0      0x123 c:/ndsdev/devkitPro/libnds/lib\libnds9.a(touch.o)
 .debug_abbrev  0x000075c3      0x152 c:/ndsdev/devkitPro/libnds/lib\libnds9.a(video.o)
 .debug_abbrev  0x00007715      0x231 c:/ndsdev/devkitPro/libnds/lib\libnds9.a(initSystem.o)
 .debug_abbrev  0x00007946      0x3af c:/ndsdev/devkitPro/libnds/lib\libnds9.a(fifosystem.o)
 .debug_abbrev  0x00007cf5      0x1d5 c:/ndsdev/devkitPro/libnds/lib\libnds9.a(interrupts.o)
 .debug_abbrev  0x00007eca      0x131 c:/ndsdev/devkitPro/libnds/lib\libnds9.a(libnds_exit.o)
 .debug_abbrev  0x00007ffb       0x14 c:/ndsdev/devkitPro/libnds/lib\libnds9.a(dcache.o)
 .debug_abbrev  0x0000800f       0x14 c:/ndsdev/devkitPro/libnds/lib\libnds9.a(mpu_setup.o)
 .debug_abbrev  0x00008023       0x14 c:/ndsdev/devkitPro/libnds/lib\libnds9.a(biosCalls.o)
 .debug_abbrev  0x00008037       0x14 c:/ndsdev/devkitPro/libnds/lib\libnds9.a(interruptDispatcher.o)
 .debug_abbrev  0x0000804b       0x14 c:/ndsdev/devkitPro/libnds/lib\libnds9.a(swiSoftReset.o)

.debug_line     0x00000000     0xe632 load address 0x0209c258
 *(.debug_line)
 .debug_line    0x00000000       0xdb Town.o
 .debug_line    0x000000db       0xe3 bg_main_down.o
 .debug_line    0x000001be       0xe1 bg_main_up.o
 .debug_line    0x0000029f       0xde bg_menu.o
 .debug_line    0x0000037d       0xe5 bg_stage1_init.o
 .debug_line    0x00000462       0xe5 bg_stage2_init.o
 .debug_line    0x00000547       0xe5 bg_stage3_init.o
 .debug_line    0x0000062c       0xdf gameover.o
 .debug_line    0x0000070b       0xdd stage1.o
 .debug_line    0x000007e8       0xdd stage2.o
 .debug_line    0x000008c5      0x458 crystal.o
 .debug_line    0x00000d1d      0x47b crystal_Ball.o
 .debug_line    0x00001198      0x6b0 cs_api.o
 .debug_line    0x00001848      0x6a0 game.o
 .debug_line    0x00001ee8      0x456 hero.o
 .debug_line    0x0000233e      0x46b main.o
 .debug_line    0x000027a9      0x42b menu.o
 .debug_line    0x00002bd4      0x46e monster.o
 .debug_line    0x00003042      0x45e princess.o
 .debug_line    0x000034a0      0x46c water.o
 .debug_line    0x0000390c      0x41c c:/ndsdev/devkitPro/PAlib/lib\libpa9.a(PA.o)
 .debug_line    0x00003d28      0x4eb c:/ndsdev/devkitPro/PAlib/lib\libpa9.a(PA_BgEasy.o)
 .debug_line    0x00004213      0xcaf c:/ndsdev/devkitPro/PAlib/lib\libpa9.a(PA_BgLargeMap.o)
 .debug_line    0x00004ec2      0x6df c:/ndsdev/devkitPro/PAlib/lib\libpa9.a(PA_BgTiles.o)
 .debug_line    0x000055a1      0x390 c:/ndsdev/devkitPro/PAlib/lib\libpa9.a(PA_Error.o)
 .debug_line    0x00005931      0x4e5 c:/ndsdev/devkitPro/PAlib/lib\libpa9.a(PA_Inits.o)
 .debug_line    0x00005e16      0x3f2 c:/ndsdev/devkitPro/PAlib/lib\libpa9.a(PA_Interrupt.o)
 .debug_line    0x00006208      0x40f c:/ndsdev/devkitPro/PAlib/lib\libpa9.a(PA_Keys.o)
 .debug_line    0x00006617      0x45d c:/ndsdev/devkitPro/PAlib/lib\libpa9.a(PA_Math.o)
 .debug_line    0x00006a74      0x6b1 c:/ndsdev/devkitPro/PAlib/lib\libpa9.a(PA_NewBg.o)
 .debug_line    0x00007125      0x5ca c:/ndsdev/devkitPro/PAlib/lib\libpa9.a(PA_Palette.o)
 .debug_line    0x000076ef      0x40d c:/ndsdev/devkitPro/PAlib/lib\libpa9.a(PA_RTC.o)
 .debug_line    0x00007afc      0x567 c:/ndsdev/devkitPro/PAlib/lib\libpa9.a(PA_Reco.o)
 .debug_line    0x00008063      0x74e c:/ndsdev/devkitPro/PAlib/lib\libpa9.a(PA_Sprite.o)
 .debug_line    0x000087b1      0x522 c:/ndsdev/devkitPro/PAlib/lib\libpa9.a(PA_SpriteAnim.o)
 .debug_line    0x00008cd3      0x401 c:/ndsdev/devkitPro/PAlib/lib\libpa9.a(PA_Stuff.o)
 .debug_line    0x000090d4      0x73b c:/ndsdev/devkitPro/PAlib/lib\libpa9.a(PA_Text.o)
 .debug_line    0x0000980f      0xa84 c:/ndsdev/devkitPro/PAlib/lib\libpa9.a(PA_Text8bit.o)
 .debug_line    0x0000a293      0x532 c:/ndsdev/devkitPro/PAlib/lib\libpa9.a(PA_TextBits.o)
 .debug_line    0x0000a7c5       0xee c:/ndsdev/devkitPro/PAlib/lib\libpa9.a(PA_TiledFont.o)
 .debug_line    0x0000a8b3       0xee c:/ndsdev/devkitPro/PAlib/lib\libpa9.a(PA_BmpFont0.o)
 .debug_line    0x0000a9a1       0xee c:/ndsdev/devkitPro/PAlib/lib\libpa9.a(PA_BmpFont1.o)
 .debug_line    0x0000aa8f       0xee c:/ndsdev/devkitPro/PAlib/lib\libpa9.a(PA_BmpFont2.o)
 .debug_line    0x0000ab7d       0xee c:/ndsdev/devkitPro/PAlib/lib\libpa9.a(PA_BmpFont3.o)
 .debug_line    0x0000ac6b       0xee c:/ndsdev/devkitPro/PAlib/lib\libpa9.a(PA_BmpFont4.o)
 .debug_line    0x0000ad59      0x5d8 c:/ndsdev/devkitPro/PAlib/lib\libpa9.a(PA_16c.o)
 .debug_line    0x0000b331      0x422 c:/ndsdev/devkitPro/PAlib/lib\libpa9.a(PA_BgRot.o)
 .debug_line    0x0000b753      0x50e c:/ndsdev/devkitPro/PAlib/lib\libpa9.a(PA_Draw.o)
 .debug_line    0x0000bc61      0x42d c:/ndsdev/devkitPro/PAlib/lib\libpa9.a(PA_Fifo.o)
 .debug_line    0x0000c08e      0x64d c:/ndsdev/devkitPro/PAlib/lib\libpa9.a(PA_Keyboard.o)
 .debug_line    0x0000c6db      0x4b2 c:/ndsdev/devkitPro/PAlib/lib\libpa9.a(PA_PaletteEx.o)
 .debug_line    0x0000cb8d       0x55 c:/ndsdev/devkitPro/PAlib/lib\libpa9.a(keyboard.map.o)
 .debug_line    0x0000cbe2       0x55 c:/ndsdev/devkitPro/PAlib/lib\libpa9.a(keyboard.pal.o)
 .debug_line    0x0000cc37       0x55 c:/ndsdev/devkitPro/PAlib/lib\libpa9.a(keyboard.raw.o)
 .debug_line    0x0000cc8c      0x244 c:/ndsdev/devkitPro/libnds/lib\libnds9.a(keys.o)
 .debug_line    0x0000ced0      0x25c c:/ndsdev/devkitPro/libnds/lib\libnds9.a(system.o)
 .debug_line    0x0000d12c      0x21d c:/ndsdev/devkitPro/libnds/lib\libnds9.a(touch.o)
 .debug_line    0x0000d349      0x1c8 c:/ndsdev/devkitPro/libnds/lib\libnds9.a(video.o)
 .debug_line    0x0000d511      0x348 c:/ndsdev/devkitPro/libnds/lib\libnds9.a(initSystem.o)
 .debug_line    0x0000d859      0x6b7 c:/ndsdev/devkitPro/libnds/lib\libnds9.a(fifosystem.o)
 .debug_line    0x0000df10      0x1c3 c:/ndsdev/devkitPro/libnds/lib\libnds9.a(interrupts.o)
 .debug_line    0x0000e0d3      0x1ca c:/ndsdev/devkitPro/libnds/lib\libnds9.a(libnds_exit.o)
 .debug_line    0x0000e29d       0xa2 c:/ndsdev/devkitPro/libnds/lib\libnds9.a(dcache.o)
 .debug_line    0x0000e33f       0xe1 c:/ndsdev/devkitPro/libnds/lib\libnds9.a(mpu_setup.o)
 .debug_line    0x0000e420       0xbf c:/ndsdev/devkitPro/libnds/lib\libnds9.a(biosCalls.o)
 .debug_line    0x0000e4df       0xc2 c:/ndsdev/devkitPro/libnds/lib\libnds9.a(interruptDispatcher.o)
 .debug_line    0x0000e5a1       0x91 c:/ndsdev/devkitPro/libnds/lib\libnds9.a(swiSoftReset.o)

.debug_frame    0x00000000     0x1998 load address 0x0209c258
 *(.debug_frame)
 .debug_frame   0x00000000       0x74 crystal.o
 .debug_frame   0x00000074       0x80 crystal_Ball.o
 .debug_frame   0x000000f4      0x17c cs_api.o
 .debug_frame   0x00000270       0x64 game.o
 .debug_frame   0x000002d4       0x54 hero.o
 .debug_frame   0x00000328       0x30 main.o
 .debug_frame   0x00000358       0x48 menu.o
 .debug_frame   0x000003a0       0x7c monster.o
 .debug_frame   0x0000041c       0x68 princess.o
 .debug_frame   0x00000484       0x7c water.o
 .debug_frame   0x00000500       0x54 c:/ndsdev/devkitPro/PAlib/lib\libpa9.a(PA.o)
 .debug_frame   0x00000554       0xa4 c:/ndsdev/devkitPro/PAlib/lib\libpa9.a(PA_BgEasy.o)
 .debug_frame   0x000005f8      0x18c c:/ndsdev/devkitPro/PAlib/lib\libpa9.a(PA_BgLargeMap.o)
 .debug_frame   0x00000784      0x124 c:/ndsdev/devkitPro/PAlib/lib\libpa9.a(PA_BgTiles.o)
 .debug_frame   0x000008a8       0x48 c:/ndsdev/devkitPro/PAlib/lib\libpa9.a(PA_Error.o)
 .debug_frame   0x000008f0       0x54 c:/ndsdev/devkitPro/PAlib/lib\libpa9.a(PA_Inits.o)
 .debug_frame   0x00000944       0x44 c:/ndsdev/devkitPro/PAlib/lib\libpa9.a(PA_Interrupt.o)
 .debug_frame   0x00000988       0x5c c:/ndsdev/devkitPro/PAlib/lib\libpa9.a(PA_Keys.o)
 .debug_frame   0x000009e4       0x3c c:/ndsdev/devkitPro/PAlib/lib\libpa9.a(PA_Math.o)
 .debug_frame   0x00000a20       0xc8 c:/ndsdev/devkitPro/PAlib/lib\libpa9.a(PA_NewBg.o)
 .debug_frame   0x00000ae8       0x70 c:/ndsdev/devkitPro/PAlib/lib\libpa9.a(PA_Palette.o)
 .debug_frame   0x00000b58       0x44 c:/ndsdev/devkitPro/PAlib/lib\libpa9.a(PA_RTC.o)
 .debug_frame   0x00000b9c       0x84 c:/ndsdev/devkitPro/PAlib/lib\libpa9.a(PA_Reco.o)
 .debug_frame   0x00000c20      0x144 c:/ndsdev/devkitPro/PAlib/lib\libpa9.a(PA_Sprite.o)
 .debug_frame   0x00000d64       0x68 c:/ndsdev/devkitPro/PAlib/lib\libpa9.a(PA_SpriteAnim.o)
 .debug_frame   0x00000dcc       0x54 c:/ndsdev/devkitPro/PAlib/lib\libpa9.a(PA_Stuff.o)
 .debug_frame   0x00000e20       0xe0 c:/ndsdev/devkitPro/PAlib/lib\libpa9.a(PA_Text.o)
 .debug_frame   0x00000f00      0x150 c:/ndsdev/devkitPro/PAlib/lib\libpa9.a(PA_Text8bit.o)
 .debug_frame   0x00001050       0x64 c:/ndsdev/devkitPro/PAlib/lib\libpa9.a(PA_TextBits.o)
 .debug_frame   0x000010b4       0xe8 c:/ndsdev/devkitPro/PAlib/lib\libpa9.a(PA_16c.o)
 .debug_frame   0x0000119c       0x3c c:/ndsdev/devkitPro/PAlib/lib\libpa9.a(PA_BgRot.o)
 .debug_frame   0x000011d8       0x3c c:/ndsdev/devkitPro/PAlib/lib\libpa9.a(PA_Draw.o)
 .debug_frame   0x00001214       0x44 c:/ndsdev/devkitPro/PAlib/lib\libpa9.a(PA_Fifo.o)
 .debug_frame   0x00001258       0xe0 c:/ndsdev/devkitPro/PAlib/lib\libpa9.a(PA_Keyboard.o)
 .debug_frame   0x00001338       0xa8 c:/ndsdev/devkitPro/PAlib/lib\libpa9.a(PA_PaletteEx.o)
 .debug_frame   0x000013e0       0x8c c:/ndsdev/devkitPro/libnds/lib\libnds9.a(keys.o)
 .debug_frame   0x0000146c       0xbc c:/ndsdev/devkitPro/libnds/lib\libnds9.a(system.o)
 .debug_frame   0x00001528       0x44 c:/ndsdev/devkitPro/libnds/lib\libnds9.a(touch.o)
 .debug_frame   0x0000156c       0x64 c:/ndsdev/devkitPro/libnds/lib\libnds9.a(video.o)
 .debug_frame   0x000015d0       0x28 c:/ndsdev/devkitPro/libnds/lib\libnds9.a(initSystem.o)
 .debug_frame   0x000015f8      0x2b4 c:/ndsdev/devkitPro/libnds/lib\libnds9.a(fifosystem.o)
 .debug_frame   0x000018ac       0xb4 c:/ndsdev/devkitPro/libnds/lib\libnds9.a(interrupts.o)
 .debug_frame   0x00001960       0x38 c:/ndsdev/devkitPro/libnds/lib\libnds9.a(libnds_exit.o)

.debug_str      0x00000000     0x517b load address 0x0209c258
 *(.debug_str)
 .debug_str     0x00000000      0x10d Town.o
                                0x140 (size before relaxing)
 .debug_str     0x0000010d       0x7e bg_main_down.o
                                0x168 (size before relaxing)
 .debug_str     0x0000018b       0x74 bg_main_up.o
                                0x15e (size before relaxing)
 .debug_str     0x000001ff       0x65 bg_menu.o
                                0x14f (size before relaxing)
 .debug_str     0x00000264       0x88 bg_stage1_init.o
                                0x172 (size before relaxing)
 .debug_str     0x000002ec       0x88 bg_stage2_init.o
                                0x172 (size before relaxing)
 .debug_str     0x00000374       0x88 bg_stage3_init.o
                                0x172 (size before relaxing)
 .debug_str     0x000003fc       0x6a gameover.o
                                0x154 (size before relaxing)
 .debug_str     0x00000466       0x60 stage1.o
                                0x14a (size before relaxing)
 .debug_str     0x000004c6       0x60 stage2.o
                                0x14a (size before relaxing)
 .debug_str     0x00000526      0xc06 crystal.o
                                0xd3d (size before relaxing)
 .debug_str     0x0000112c       0xde crystal_Ball.o
                                0xda7 (size before relaxing)
 .debug_str     0x0000120a      0x446 cs_api.o
                               0x112c (size before relaxing)
 .debug_str     0x00001650      0x192 game.o
                                0xfd4 (size before relaxing)
 .debug_str     0x000017e2       0x48 hero.o
                                0xd2b (size before relaxing)
 .debug_str     0x0000182a       0x4c main.o
                                0xd3f (size before relaxing)
 .debug_str     0x00001876       0x61 menu.o
                                0xccf (size before relaxing)
 .debug_str     0x000018d7       0xb4 monster.o
                                0xd6a (size before relaxing)
 .debug_str     0x0000198b       0x83 princess.o
                                0xd22 (size before relaxing)
 .debug_str     0x00001a0e       0x8b water.o
                                0xd56 (size before relaxing)
 .debug_str     0x00001a99      0x410 c:/ndsdev/devkitPro/PAlib/lib\libpa9.a(PA.o)
                               0x1156 (size before relaxing)
 .debug_str     0x00001ea9       0xf1 c:/ndsdev/devkitPro/PAlib/lib\libpa9.a(PA_BgEasy.o)
                                0xd74 (size before relaxing)
 .debug_str     0x00001f9a      0x181 c:/ndsdev/devkitPro/PAlib/lib\libpa9.a(PA_BgLargeMap.o)
                                0xe09 (size before relaxing)
 .debug_str     0x0000211b      0x15b c:/ndsdev/devkitPro/PAlib/lib\libpa9.a(PA_BgTiles.o)
                                0xfe6 (size before relaxing)
 .debug_str     0x00002276       0x5d c:/ndsdev/devkitPro/PAlib/lib\libpa9.a(PA_Error.o)
                                0xcb5 (size before relaxing)
 .debug_str     0x000022d3      0x840 c:/ndsdev/devkitPro/PAlib/lib\libpa9.a(PA_Inits.o)
                               0x1707 (size before relaxing)
 .debug_str     0x00002b13       0x63 c:/ndsdev/devkitPro/PAlib/lib\libpa9.a(PA_Interrupt.o)
                                0xdf9 (size before relaxing)
 .debug_str     0x00002b76       0x7f c:/ndsdev/devkitPro/PAlib/lib\libpa9.a(PA_Keys.o)
                                0xe45 (size before relaxing)
 .debug_str     0x00002bf5       0x7a c:/ndsdev/devkitPro/PAlib/lib\libpa9.a(PA_Math.o)
                                0xda7 (size before relaxing)
 .debug_str     0x00002c6f      0x117 c:/ndsdev/devkitPro/PAlib/lib\libpa9.a(PA_NewBg.o)
                                0xeee (size before relaxing)
 .debug_str     0x00002d86      0x359 c:/ndsdev/devkitPro/PAlib/lib\libpa9.a(PA_Palette.o)
                               0x10d0 (size before relaxing)
 .debug_str     0x000030df      0x1c7 c:/ndsdev/devkitPro/PAlib/lib\libpa9.a(PA_RTC.o)
                                0xf4f (size before relaxing)
 .debug_str     0x000032a6      0x159 c:/ndsdev/devkitPro/PAlib/lib\libpa9.a(PA_Reco.o)
                                0xea8 (size before relaxing)
 .debug_str     0x000033ff      0x1ee c:/ndsdev/devkitPro/PAlib/lib\libpa9.a(PA_Sprite.o)
                                0xfdb (size before relaxing)
 .debug_str     0x000035ed       0x6e c:/ndsdev/devkitPro/PAlib/lib\libpa9.a(PA_SpriteAnim.o)
                                0xd5b (size before relaxing)
 .debug_str     0x0000365b      0x186 c:/ndsdev/devkitPro/PAlib/lib\libpa9.a(PA_Stuff.o)
                                0xe11 (size before relaxing)
 .debug_str     0x000037e1      0x137 c:/ndsdev/devkitPro/PAlib/lib\libpa9.a(PA_Text.o)
                                0xf3f (size before relaxing)
 .debug_str     0x00003918      0x1b4 c:/ndsdev/devkitPro/PAlib/lib\libpa9.a(PA_Text8bit.o)
                                0xf2f (size before relaxing)
 .debug_str     0x00003acc      0x135 c:/ndsdev/devkitPro/PAlib/lib\libpa9.a(PA_TextBits.o)
                                0xf39 (size before relaxing)
 .debug_str     0x00003c01       0x43 c:/ndsdev/devkitPro/PAlib/lib\libpa9.a(PA_TiledFont.o)
                                0x16f (size before relaxing)
 .debug_str     0x00003c44       0x43 c:/ndsdev/devkitPro/PAlib/lib\libpa9.a(PA_BmpFont0.o)
                                0x16d (size before relaxing)
 .debug_str     0x00003c87       0x43 c:/ndsdev/devkitPro/PAlib/lib\libpa9.a(PA_BmpFont1.o)
                                0x16d (size before relaxing)
 .debug_str     0x00003cca       0x43 c:/ndsdev/devkitPro/PAlib/lib\libpa9.a(PA_BmpFont2.o)
                                0x16d (size before relaxing)
 .debug_str     0x00003d0d       0x43 c:/ndsdev/devkitPro/PAlib/lib\libpa9.a(PA_BmpFont3.o)
                                0x16d (size before relaxing)
 .debug_str     0x00003d50       0x43 c:/ndsdev/devkitPro/PAlib/lib\libpa9.a(PA_BmpFont4.o)
                                0x16d (size before relaxing)
 .debug_str     0x00003d93       0xe1 c:/ndsdev/devkitPro/PAlib/lib\libpa9.a(PA_16c.o)
                                0xf67 (size before relaxing)
 .debug_str     0x00003e74       0x59 c:/ndsdev/devkitPro/PAlib/lib\libpa9.a(PA_BgRot.o)
                                0xdd6 (size before relaxing)
 .debug_str     0x00003ecd      0x15f c:/ndsdev/devkitPro/PAlib/lib\libpa9.a(PA_Draw.o)
                                0xe94 (size before relaxing)
 .debug_str     0x0000402c      0x11e c:/ndsdev/devkitPro/PAlib/lib\libpa9.a(PA_Fifo.o)
                                0xe45 (size before relaxing)
 .debug_str     0x0000414a      0x115 c:/ndsdev/devkitPro/PAlib/lib\libpa9.a(PA_Keyboard.o)
                                0xeba (size before relaxing)
 .debug_str     0x0000425f      0x26f c:/ndsdev/devkitPro/PAlib/lib\libpa9.a(PA_PaletteEx.o)
                               0x11b1 (size before relaxing)
 .debug_str     0x000044ce       0x35 c:/ndsdev/devkitPro/PAlib/lib\libpa9.a(keyboard.map.o)
                                 0x61 (size before relaxing)
 .debug_str     0x00004503       0x35 c:/ndsdev/devkitPro/PAlib/lib\libpa9.a(keyboard.pal.o)
                                 0x65 (size before relaxing)
 .debug_str     0x00004538       0x35 c:/ndsdev/devkitPro/PAlib/lib\libpa9.a(keyboard.raw.o)
                                 0x5e (size before relaxing)
 .debug_str     0x0000456d      0x162 c:/ndsdev/devkitPro/libnds/lib\libnds9.a(keys.o)
                                0x2da (size before relaxing)
 .debug_str     0x000046cf      0x1ea c:/ndsdev/devkitPro/libnds/lib\libnds9.a(system.o)
                                0x4c5 (size before relaxing)
 .debug_str     0x000048b9       0x70 c:/ndsdev/devkitPro/libnds/lib\libnds9.a(touch.o)
                                0x1f6 (size before relaxing)
 .debug_str     0x00004929       0xca c:/ndsdev/devkitPro/libnds/lib\libnds9.a(video.o)
                                0x668 (size before relaxing)
 .debug_str     0x000049f3       0xa9 c:/ndsdev/devkitPro/libnds/lib\libnds9.a(initSystem.o)
                                0x882 (size before relaxing)
 .debug_str     0x00004a9c      0x52e c:/ndsdev/devkitPro/libnds/lib\libnds9.a(fifosystem.o)
                                0x74a (size before relaxing)
 .debug_str     0x00004fca      0x12b c:/ndsdev/devkitPro/libnds/lib\libnds9.a(interrupts.o)
                                0x348 (size before relaxing)
 .debug_str     0x000050f5       0x86 c:/ndsdev/devkitPro/libnds/lib\libnds9.a(libnds_exit.o)
                                0x296 (size before relaxing)

.debug_loc      0x00000000     0xc3ff load address 0x0209c258
 *(.debug_loc)
 .debug_loc     0x00000000      0x12c crystal.o
 .debug_loc     0x0000012c      0x1bc crystal_Ball.o
 .debug_loc     0x000002e8      0x7b8 cs_api.o
 .debug_loc     0x00000aa0      0x763 game.o
 .debug_loc     0x00001203      0x15b hero.o
 .debug_loc     0x0000135e       0x3f main.o
 .debug_loc     0x0000139d       0x6b menu.o
 .debug_loc     0x00001408      0x209 monster.o
 .debug_loc     0x00001611      0x12b princess.o
 .debug_loc     0x0000173c      0x1df water.o
 .debug_loc     0x0000191b       0xa0 c:/ndsdev/devkitPro/PAlib/lib\libpa9.a(PA.o)
 .debug_loc     0x000019bb      0x57d c:/ndsdev/devkitPro/PAlib/lib\libpa9.a(PA_BgEasy.o)
 .debug_loc     0x00001f38     0x1617 c:/ndsdev/devkitPro/PAlib/lib\libpa9.a(PA_BgLargeMap.o)
 .debug_loc     0x0000354f      0x88e c:/ndsdev/devkitPro/PAlib/lib\libpa9.a(PA_BgTiles.o)
 .debug_loc     0x00003ddd       0xe2 c:/ndsdev/devkitPro/PAlib/lib\libpa9.a(PA_Error.o)
 .debug_loc     0x00003ebf      0x17d c:/ndsdev/devkitPro/PAlib/lib\libpa9.a(PA_Inits.o)
 .debug_loc     0x0000403c       0x68 c:/ndsdev/devkitPro/PAlib/lib\libpa9.a(PA_Interrupt.o)
 .debug_loc     0x000040a4       0xb3 c:/ndsdev/devkitPro/PAlib/lib\libpa9.a(PA_Keys.o)
 .debug_loc     0x00004157      0x2f0 c:/ndsdev/devkitPro/PAlib/lib\libpa9.a(PA_Math.o)
 .debug_loc     0x00004447      0x922 c:/ndsdev/devkitPro/PAlib/lib\libpa9.a(PA_NewBg.o)
 .debug_loc     0x00004d69      0x3cd c:/ndsdev/devkitPro/PAlib/lib\libpa9.a(PA_Palette.o)
 .debug_loc     0x00005136       0xa1 c:/ndsdev/devkitPro/PAlib/lib\libpa9.a(PA_RTC.o)
 .debug_loc     0x000051d7      0x896 c:/ndsdev/devkitPro/PAlib/lib\libpa9.a(PA_Reco.o)
 .debug_loc     0x00005a6d      0x87a c:/ndsdev/devkitPro/PAlib/lib\libpa9.a(PA_Sprite.o)
 .debug_loc     0x000062e7      0x346 c:/ndsdev/devkitPro/PAlib/lib\libpa9.a(PA_SpriteAnim.o)
 .debug_loc     0x0000662d      0x150 c:/ndsdev/devkitPro/PAlib/lib\libpa9.a(PA_Stuff.o)
 .debug_loc     0x0000677d      0xaea c:/ndsdev/devkitPro/PAlib/lib\libpa9.a(PA_Text.o)
 .debug_loc     0x00007267     0x1c67 c:/ndsdev/devkitPro/PAlib/lib\libpa9.a(PA_Text8bit.o)
 .debug_loc     0x00008ece      0x739 c:/ndsdev/devkitPro/PAlib/lib\libpa9.a(PA_TextBits.o)
 .debug_loc     0x00009607      0x7c6 c:/ndsdev/devkitPro/PAlib/lib\libpa9.a(PA_16c.o)
 .debug_loc     0x00009dcd      0x223 c:/ndsdev/devkitPro/PAlib/lib\libpa9.a(PA_BgRot.o)
 .debug_loc     0x00009ff0      0x3e6 c:/ndsdev/devkitPro/PAlib/lib\libpa9.a(PA_Draw.o)
 .debug_loc     0x0000a3d6       0x7d c:/ndsdev/devkitPro/PAlib/lib\libpa9.a(PA_Fifo.o)
 .debug_loc     0x0000a453      0x5f3 c:/ndsdev/devkitPro/PAlib/lib\libpa9.a(PA_Keyboard.o)
 .debug_loc     0x0000aa46      0x2fe c:/ndsdev/devkitPro/PAlib/lib\libpa9.a(PA_PaletteEx.o)
 .debug_loc     0x0000ad44       0x20 c:/ndsdev/devkitPro/libnds/lib\libnds9.a(keys.o)
 .debug_loc     0x0000ad64      0x1ba c:/ndsdev/devkitPro/libnds/lib\libnds9.a(system.o)
 .debug_loc     0x0000af1e       0x40 c:/ndsdev/devkitPro/libnds/lib\libnds9.a(touch.o)
 .debug_loc     0x0000af5e       0xfd c:/ndsdev/devkitPro/libnds/lib\libnds9.a(video.o)
 .debug_loc     0x0000b05b       0x64 c:/ndsdev/devkitPro/libnds/lib\libnds9.a(initSystem.o)
 .debug_loc     0x0000b0bf     0x1140 c:/ndsdev/devkitPro/libnds/lib\libnds9.a(fifosystem.o)
 .debug_loc     0x0000c1ff      0x1a4 c:/ndsdev/devkitPro/libnds/lib\libnds9.a(interrupts.o)
 .debug_loc     0x0000c3a3       0x5c c:/ndsdev/devkitPro/libnds/lib\libnds9.a(libnds_exit.o)

.debug_macinfo
 *(.debug_macinfo)

.debug_weaknames
 *(.debug_weaknames)

.debug_funcnames
 *(.debug_funcnames)

.debug_typenames
 *(.debug_typenames)

.debug_varnames
 *(.debug_varnames)

.stack          0x00080000        0x0 load address 0x0209c258
                0x00080000                _stack = .
 *(.stack)
LOAD c:/ndsdev/devkitpro/devkitarm/bin/../lib/gcc/arm-eabi/4.5.1/../../../../arm-eabi/lib/thumb/ds_arm9_crt0.o
LOAD c:/ndsdev/devkitpro/devkitarm/bin/../lib/gcc/arm-eabi/4.5.1/thumb/crti.o
LOAD c:/ndsdev/devkitpro/devkitarm/bin/../lib/gcc/arm-eabi/4.5.1/thumb/crtbegin.o
LOAD Town_Map.o
LOAD Town_Pal.o
LOAD Town_Tiles.o
LOAD bg_main_down_Map.o
LOAD bg_main_down_Pal.o
LOAD bg_main_down_Tiles.o
LOAD bg_main_up_Map.o
LOAD bg_main_up_Pal.o
LOAD bg_main_up_Tiles.o
LOAD bg_menu_Map.o
LOAD bg_menu_Pal.o
LOAD bg_menu_Tiles.o
LOAD bg_stage1_init_Map.o
LOAD bg_stage1_init_Pal.o
LOAD bg_stage1_init_Tiles.o
LOAD bg_stage2_init_Map.o
LOAD bg_stage2_init_Pal.o
LOAD bg_stage2_init_Tiles.o
LOAD bg_stage3_init_Map.o
LOAD bg_stage3_init_Pal.o
LOAD bg_stage3_init_Tiles.o
LOAD gameover_Map.o
LOAD gameover_Pal.o
LOAD gameover_Tiles.o
LOAD hpminus_Pal.o
LOAD hpminus_Sprite.o
LOAD monster_Pal.o
LOAD monster_Sprite.o
LOAD princess_Pal.o
LOAD princess_Sprite.o
LOAD som_Pal.o
LOAD som_Sprite.o
LOAD sprite1_Pal.o
LOAD sprite1_Sprite.o
LOAD stage1_Map.o
LOAD stage1_Pal.o
LOAD stage1_Tiles.o
LOAD stage2_Map.o
LOAD stage2_Pal.o
LOAD stage2_Tiles.o
LOAD water_Pal.o
LOAD water_Sprite.o
LOAD Town.o
LOAD bg_main_down.o
LOAD bg_main_up.o
LOAD bg_menu.o
LOAD bg_stage1_init.o
LOAD bg_stage2_init.o
LOAD bg_stage3_init.o
LOAD gameover.o
LOAD stage1.o
LOAD stage2.o
LOAD crystal.o
LOAD crystal_Ball.o
LOAD cs_api.o
LOAD game.o
LOAD hero.o
LOAD main.o
LOAD menu.o
LOAD monster.o
LOAD princess.o
LOAD water.o
LOAD c:/ndsdev/devkitPro/PAlib/lib\libpa9.a
LOAD c:/ndsdev/devkitPro/libnds/lib\libfilesystem.a
LOAD c:/ndsdev/devkitPro/libnds/lib\libfat.a
LOAD c:/ndsdev/devkitPro/libnds/lib\libnds9.a
LOAD c:/ndsdev/devkitpro/devkitarm/bin/../lib/gcc/arm-eabi/4.5.1/../../../../arm-eabi/lib/thumb\libstdc++.a
LOAD c:/ndsdev/devkitpro/devkitarm/bin/../lib/gcc/arm-eabi/4.5.1/../../../../arm-eabi/lib/thumb\libm.a
START GROUP
LOAD c:/ndsdev/devkitpro/devkitarm/bin/../lib/gcc/arm-eabi/4.5.1/thumb\libgcc.a
LOAD c:/ndsdev/devkitpro/devkitarm/bin/../lib/gcc/arm-eabi/4.5.1/../../../../arm-eabi/lib/thumb\libg.a
LOAD c:/ndsdev/devkitpro/devkitarm/bin/../lib/gcc/arm-eabi/4.5.1/../../../../arm-eabi/lib/thumb\libc.a
LOAD c:/ndsdev/devkitpro/devkitarm/bin/../lib/gcc/arm-eabi/4.5.1/../../../../arm-eabi/lib/thumb\libsysbase.a
END GROUP
LOAD c:/ndsdev/devkitpro/devkitarm/bin/../lib/gcc/arm-eabi/4.5.1/thumb/crtend.o
LOAD c:/ndsdev/devkitpro/devkitarm/bin/../lib/gcc/arm-eabi/4.5.1/thumb/crtn.o
OUTPUT(build.elf elf32-littlearm)

.debug_pubtypes
                0x00000000     0x6f85 load address 0x0209c258
 .debug_pubtypes
                0x00000000       0x2d Town.o
 .debug_pubtypes
                0x0000002d       0x2d bg_main_down.o
 .debug_pubtypes
                0x0000005a       0x2d bg_main_up.o
 .debug_pubtypes
                0x00000087       0x2d bg_menu.o
 .debug_pubtypes
                0x000000b4       0x2d bg_stage1_init.o
 .debug_pubtypes
                0x000000e1       0x2d bg_stage2_init.o
 .debug_pubtypes
                0x0000010e       0x2d bg_stage3_init.o
 .debug_pubtypes
                0x0000013b       0x2d gameover.o
 .debug_pubtypes
                0x00000168       0x2d stage1.o
 .debug_pubtypes
                0x00000195       0x2d stage2.o
 .debug_pubtypes
                0x000001c2      0x1fd crystal.o
 .debug_pubtypes
                0x000003bf      0x202 crystal_Ball.o
 .debug_pubtypes
                0x000005c1      0x207 cs_api.o
 .debug_pubtypes
                0x000007c8      0x27d game.o
 .debug_pubtypes
                0x00000a45      0x1fa hero.o
 .debug_pubtypes
                0x00000c3f      0x1fc main.o
 .debug_pubtypes
                0x00000e3b      0x1f1 menu.o
 .debug_pubtypes
                0x0000102c      0x1fd monster.o
 .debug_pubtypes
                0x00001229      0x1fe princess.o
 .debug_pubtypes
                0x00001427      0x1fb water.o
 .debug_pubtypes
                0x00001622      0x382 c:/ndsdev/devkitPro/PAlib/lib\libpa9.a(PA.o)
 .debug_pubtypes
                0x000019a4      0x311 c:/ndsdev/devkitPro/PAlib/lib\libpa9.a(PA_BgEasy.o)
 .debug_pubtypes
                0x00001cb5      0x311 c:/ndsdev/devkitPro/PAlib/lib\libpa9.a(PA_BgLargeMap.o)
 .debug_pubtypes
                0x00001fc6      0x33f c:/ndsdev/devkitPro/PAlib/lib\libpa9.a(PA_BgTiles.o)
 .debug_pubtypes
                0x00002305      0x308 c:/ndsdev/devkitPro/PAlib/lib\libpa9.a(PA_Error.o)
 .debug_pubtypes
                0x0000260d      0x343 c:/ndsdev/devkitPro/PAlib/lib\libpa9.a(PA_Inits.o)
 .debug_pubtypes
                0x00002950      0x327 c:/ndsdev/devkitPro/PAlib/lib\libpa9.a(PA_Interrupt.o)
 .debug_pubtypes
                0x00002c77      0x350 c:/ndsdev/devkitPro/PAlib/lib\libpa9.a(PA_Keys.o)
 .debug_pubtypes
                0x00002fc7      0x331 c:/ndsdev/devkitPro/PAlib/lib\libpa9.a(PA_Math.o)
 .debug_pubtypes
                0x000032f8      0x341 c:/ndsdev/devkitPro/PAlib/lib\libpa9.a(PA_NewBg.o)
 .debug_pubtypes
                0x00003639      0x365 c:/ndsdev/devkitPro/PAlib/lib\libpa9.a(PA_Palette.o)
 .debug_pubtypes
                0x0000399e      0x349 c:/ndsdev/devkitPro/PAlib/lib\libpa9.a(PA_RTC.o)
 .debug_pubtypes
                0x00003ce7      0x341 c:/ndsdev/devkitPro/PAlib/lib\libpa9.a(PA_Reco.o)
 .debug_pubtypes
                0x00004028      0x33d c:/ndsdev/devkitPro/PAlib/lib\libpa9.a(PA_Sprite.o)
 .debug_pubtypes
                0x00004365      0x31b c:/ndsdev/devkitPro/PAlib/lib\libpa9.a(PA_SpriteAnim.o)
 .debug_pubtypes
                0x00004680      0x3bd c:/ndsdev/devkitPro/PAlib/lib\libpa9.a(PA_Stuff.o)
 .debug_pubtypes
                0x00004a3d      0x359 c:/ndsdev/devkitPro/PAlib/lib\libpa9.a(PA_Text.o)
 .debug_pubtypes
                0x00004d96      0x323 c:/ndsdev/devkitPro/PAlib/lib\libpa9.a(PA_Text8bit.o)
 .debug_pubtypes
                0x000050b9      0x316 c:/ndsdev/devkitPro/PAlib/lib\libpa9.a(PA_TextBits.o)
 .debug_pubtypes
                0x000053cf       0x2d c:/ndsdev/devkitPro/PAlib/lib\libpa9.a(PA_TiledFont.o)
 .debug_pubtypes
                0x000053fc       0x2d c:/ndsdev/devkitPro/PAlib/lib\libpa9.a(PA_BmpFont0.o)
 .debug_pubtypes
                0x00005429       0x2d c:/ndsdev/devkitPro/PAlib/lib\libpa9.a(PA_BmpFont1.o)
 .debug_pubtypes
                0x00005456       0x2d c:/ndsdev/devkitPro/PAlib/lib\libpa9.a(PA_BmpFont2.o)
 .debug_pubtypes
                0x00005483       0x2d c:/ndsdev/devkitPro/PAlib/lib\libpa9.a(PA_BmpFont3.o)
 .debug_pubtypes
                0x000054b0       0x2d c:/ndsdev/devkitPro/PAlib/lib\libpa9.a(PA_BmpFont4.o)
 .debug_pubtypes
                0x000054dd      0x32b c:/ndsdev/devkitPro/PAlib/lib\libpa9.a(PA_16c.o)
 .debug_pubtypes
                0x00005808      0x314 c:/ndsdev/devkitPro/PAlib/lib\libpa9.a(PA_BgRot.o)
 .debug_pubtypes
                0x00005b1c      0x327 c:/ndsdev/devkitPro/PAlib/lib\libpa9.a(PA_Draw.o)
 .debug_pubtypes
                0x00005e43      0x32d c:/ndsdev/devkitPro/PAlib/lib\libpa9.a(PA_Fifo.o)
 .debug_pubtypes
                0x00006170      0x31d c:/ndsdev/devkitPro/PAlib/lib\libpa9.a(PA_Keyboard.o)
 .debug_pubtypes
                0x0000648d      0x360 c:/ndsdev/devkitPro/PAlib/lib\libpa9.a(PA_PaletteEx.o)
 .debug_pubtypes
                0x000067ed       0xdd c:/ndsdev/devkitPro/libnds/lib\libnds9.a(keys.o)
 .debug_pubtypes
                0x000068ca      0x109 c:/ndsdev/devkitPro/libnds/lib\libnds9.a(system.o)
 .debug_pubtypes
                0x000069d3       0xc4 c:/ndsdev/devkitPro/libnds/lib\libnds9.a(touch.o)
 .debug_pubtypes
                0x00006a97       0xb4 c:/ndsdev/devkitPro/libnds/lib\libnds9.a(video.o)
 .debug_pubtypes
                0x00006b4b      0x1df c:/ndsdev/devkitPro/libnds/lib\libnds9.a(initSystem.o)
 .debug_pubtypes
                0x00006d2a      0x126 c:/ndsdev/devkitPro/libnds/lib\libnds9.a(fifosystem.o)
 .debug_pubtypes
                0x00006e50       0xaa c:/ndsdev/devkitPro/libnds/lib\libnds9.a(interrupts.o)
 .debug_pubtypes
                0x00006efa       0x8b c:/ndsdev/devkitPro/libnds/lib\libnds9.a(libnds_exit.o)

.debug_ranges   0x00000000     0x2c98 load address 0x0209c258
 .debug_ranges  0x00000000       0x18 crystal.o
 .debug_ranges  0x00000018       0x18 crystal_Ball.o
 .debug_ranges  0x00000030      0x370 cs_api.o
 .debug_ranges  0x000003a0      0x2d8 game.o
 .debug_ranges  0x00000678       0x30 menu.o
 .debug_ranges  0x000006a8       0x48 monster.o
 .debug_ranges  0x000006f0       0x18 princess.o
 .debug_ranges  0x00000708       0x48 water.o
 .debug_ranges  0x00000750      0x108 c:/ndsdev/devkitPro/PAlib/lib\libpa9.a(PA_BgEasy.o)
 .debug_ranges  0x00000858      0x750 c:/ndsdev/devkitPro/PAlib/lib\libpa9.a(PA_BgLargeMap.o)
 .debug_ranges  0x00000fa8      0x100 c:/ndsdev/devkitPro/PAlib/lib\libpa9.a(PA_BgTiles.o)
 .debug_ranges  0x000010a8       0xd8 c:/ndsdev/devkitPro/PAlib/lib\libpa9.a(PA_Inits.o)
 .debug_ranges  0x00001180      0x120 c:/ndsdev/devkitPro/PAlib/lib\libpa9.a(PA_Math.o)
 .debug_ranges  0x000012a0      0x250 c:/ndsdev/devkitPro/PAlib/lib\libpa9.a(PA_NewBg.o)
 .debug_ranges  0x000014f0       0xd0 c:/ndsdev/devkitPro/PAlib/lib\libpa9.a(PA_Palette.o)
 .debug_ranges  0x000015c0       0xc0 c:/ndsdev/devkitPro/PAlib/lib\libpa9.a(PA_Reco.o)
 .debug_ranges  0x00001680      0x148 c:/ndsdev/devkitPro/PAlib/lib\libpa9.a(PA_Sprite.o)
 .debug_ranges  0x000017c8      0x140 c:/ndsdev/devkitPro/PAlib/lib\libpa9.a(PA_SpriteAnim.o)
 .debug_ranges  0x00001908       0x48 c:/ndsdev/devkitPro/PAlib/lib\libpa9.a(PA_Text.o)
 .debug_ranges  0x00001950      0xce0 c:/ndsdev/devkitPro/PAlib/lib\libpa9.a(PA_Text8bit.o)
 .debug_ranges  0x00002630       0x28 c:/ndsdev/devkitPro/PAlib/lib\libpa9.a(PA_TextBits.o)
 .debug_ranges  0x00002658       0x58 c:/ndsdev/devkitPro/PAlib/lib\libpa9.a(PA_16c.o)
 .debug_ranges  0x000026b0       0x20 c:/ndsdev/devkitPro/PAlib/lib\libpa9.a(PA_BgRot.o)
 .debug_ranges  0x000026d0       0x28 c:/ndsdev/devkitPro/PAlib/lib\libpa9.a(PA_Draw.o)
 .debug_ranges  0x000026f8      0x168 c:/ndsdev/devkitPro/PAlib/lib\libpa9.a(PA_Keyboard.o)
 .debug_ranges  0x00002860       0x78 c:/ndsdev/devkitPro/PAlib/lib\libpa9.a(PA_PaletteEx.o)
 .debug_ranges  0x000028d8       0x18 c:/ndsdev/devkitPro/libnds/lib\libnds9.a(touch.o)
 .debug_ranges  0x000028f0      0x378 c:/ndsdev/devkitPro/libnds/lib\libnds9.a(fifosystem.o)
 .debug_ranges  0x00002c68       0x30 c:/ndsdev/devkitPro/libnds/lib\libnds9.a(interrupts.o)
